
Subsystem_Program.elf:     file format elf32-avr

Sections:
Idx Name          Size      VMA       LMA       File off  Algn
  0 .text         00002212  00000000  00000000  00000074  2**1
                  CONTENTS, ALLOC, LOAD, READONLY, CODE
  1 .bss          00000335  00800100  00800100  00002286  2**0
                  ALLOC
  2 .comment      00000030  00000000  00000000  00002286  2**0
                  CONTENTS, READONLY
  3 .debug_aranges 00000350  00000000  00000000  000022b6  2**0
                  CONTENTS, READONLY, DEBUGGING
  4 .debug_info   0000603b  00000000  00000000  00002606  2**0
                  CONTENTS, READONLY, DEBUGGING
  5 .debug_abbrev 0000120e  00000000  00000000  00008641  2**0
                  CONTENTS, READONLY, DEBUGGING
  6 .debug_line   0000149b  00000000  00000000  0000984f  2**0
                  CONTENTS, READONLY, DEBUGGING
  7 .debug_frame  00000780  00000000  00000000  0000acec  2**2
                  CONTENTS, READONLY, DEBUGGING
  8 .debug_str    00000c37  00000000  00000000  0000b46c  2**0
                  CONTENTS, READONLY, DEBUGGING
  9 .debug_loc    0000296b  00000000  00000000  0000c0a3  2**0
                  CONTENTS, READONLY, DEBUGGING
 10 .debug_ranges 000002d8  00000000  00000000  0000ea0e  2**0
                  CONTENTS, READONLY, DEBUGGING

Disassembly of section .text:

00000000 <__vectors>:
       0:	0c 94 49 00 	jmp	0x92	; 0x92 <__ctors_end>
       4:	0c 94 5b 00 	jmp	0xb6	; 0xb6 <__bad_interrupt>
       8:	0c 94 5b 00 	jmp	0xb6	; 0xb6 <__bad_interrupt>
       c:	0c 94 5b 00 	jmp	0xb6	; 0xb6 <__bad_interrupt>
      10:	0c 94 5b 00 	jmp	0xb6	; 0xb6 <__bad_interrupt>
      14:	0c 94 5b 00 	jmp	0xb6	; 0xb6 <__bad_interrupt>
      18:	0c 94 5b 00 	jmp	0xb6	; 0xb6 <__bad_interrupt>
      1c:	0c 94 5b 00 	jmp	0xb6	; 0xb6 <__bad_interrupt>
      20:	0c 94 5b 00 	jmp	0xb6	; 0xb6 <__bad_interrupt>
      24:	0c 94 5b 00 	jmp	0xb6	; 0xb6 <__bad_interrupt>
      28:	0c 94 5b 00 	jmp	0xb6	; 0xb6 <__bad_interrupt>
      2c:	0c 94 5b 00 	jmp	0xb6	; 0xb6 <__bad_interrupt>
      30:	0c 94 e3 0e 	jmp	0x1dc6	; 0x1dc6 <__vector_12>
      34:	0c 94 5b 00 	jmp	0xb6	; 0xb6 <__bad_interrupt>
      38:	0c 94 5b 00 	jmp	0xb6	; 0xb6 <__bad_interrupt>
      3c:	0c 94 5b 00 	jmp	0xb6	; 0xb6 <__bad_interrupt>
      40:	0c 94 5b 00 	jmp	0xb6	; 0xb6 <__bad_interrupt>
      44:	0c 94 3b 0d 	jmp	0x1a76	; 0x1a76 <__vector_17>
      48:	0c 94 5b 00 	jmp	0xb6	; 0xb6 <__bad_interrupt>
      4c:	0c 94 5b 00 	jmp	0xb6	; 0xb6 <__bad_interrupt>
      50:	0c 94 5b 00 	jmp	0xb6	; 0xb6 <__bad_interrupt>
      54:	0c 94 5b 00 	jmp	0xb6	; 0xb6 <__bad_interrupt>
      58:	0c 94 5b 00 	jmp	0xb6	; 0xb6 <__bad_interrupt>
      5c:	0c 94 5b 00 	jmp	0xb6	; 0xb6 <__bad_interrupt>
      60:	0c 94 5b 00 	jmp	0xb6	; 0xb6 <__bad_interrupt>
      64:	0c 94 5b 00 	jmp	0xb6	; 0xb6 <__bad_interrupt>
      68:	0c 94 5b 00 	jmp	0xb6	; 0xb6 <__bad_interrupt>
      6c:	0c 94 5b 00 	jmp	0xb6	; 0xb6 <__bad_interrupt>
      70:	0c 94 5b 00 	jmp	0xb6	; 0xb6 <__bad_interrupt>
      74:	0c 94 5b 00 	jmp	0xb6	; 0xb6 <__bad_interrupt>
      78:	0c 94 5b 00 	jmp	0xb6	; 0xb6 <__bad_interrupt>
      7c:	d1 01       	movw	r26, r2
      7e:	63 02       	muls	r22, r19
      80:	ed 02       	muls	r30, r29
      82:	61 03       	mulsu	r22, r17
      84:	a1 03       	fmuls	r18, r17
      86:	1d 04       	cpc	r1, r13
      88:	9a 04       	cpc	r9, r10
      8a:	37 05       	cpc	r19, r7
      8c:	dd 05       	cpc	r29, r13
      8e:	cb 01       	movw	r24, r22
      90:	e6 06       	cpc	r14, r22

00000092 <__ctors_end>:
      92:	11 24       	eor	r1, r1
      94:	1f be       	out	0x3f, r1	; 63
      96:	cf ef       	ldi	r28, 0xFF	; 255
      98:	d8 e0       	ldi	r29, 0x08	; 8
      9a:	de bf       	out	0x3e, r29	; 62
      9c:	cd bf       	out	0x3d, r28	; 61

0000009e <__do_clear_bss>:
      9e:	24 e0       	ldi	r18, 0x04	; 4
      a0:	a0 e0       	ldi	r26, 0x00	; 0
      a2:	b1 e0       	ldi	r27, 0x01	; 1
      a4:	01 c0       	rjmp	.+2      	; 0xa8 <.do_clear_bss_start>

000000a6 <.do_clear_bss_loop>:
      a6:	1d 92       	st	X+, r1

000000a8 <.do_clear_bss_start>:
      a8:	a5 33       	cpi	r26, 0x35	; 53
      aa:	b2 07       	cpc	r27, r18
      ac:	e1 f7       	brne	.-8      	; 0xa6 <.do_clear_bss_loop>
      ae:	0e 94 4d 0d 	call	0x1a9a	; 0x1a9a <main>
      b2:	0c 94 07 11 	jmp	0x220e	; 0x220e <_exit>

000000b6 <__bad_interrupt>:
      b6:	0c 94 00 00 	jmp	0	; 0x0 <__vectors>

000000ba <adc_initialize>:
      ba:	82 e0       	ldi	r24, 0x02	; 2
      bc:	80 93 7c 00 	sts	0x007C, r24
      c0:	82 ee       	ldi	r24, 0xE2	; 226
      c2:	80 93 7a 00 	sts	0x007A, r24
      c6:	80 ea       	ldi	r24, 0xA0	; 160
      c8:	80 93 7b 00 	sts	0x007B, r24
      cc:	08 95       	ret

000000ce <can_send_message>:
      ce:	21 ed       	ldi	r18, 0xD1	; 209
      d0:	31 e0       	ldi	r19, 0x01	; 1
      d2:	30 93 bd 03 	sts	0x03BD, r19
      d6:	20 93 bc 03 	sts	0x03BC, r18
      da:	10 92 c0 03 	sts	0x03C0, r1
      de:	70 e0       	ldi	r23, 0x00	; 0
      e0:	70 93 b8 03 	sts	0x03B8, r23
      e4:	60 93 b7 03 	sts	0x03B7, r22
      e8:	22 e0       	ldi	r18, 0x02	; 2
      ea:	20 93 b6 03 	sts	0x03B6, r18
      ee:	28 e0       	ldi	r18, 0x08	; 8
      f0:	20 93 bb 03 	sts	0x03BB, r18
      f4:	24 e0       	ldi	r18, 0x04	; 4
      f6:	20 93 f0 02 	sts	0x02F0, r18
      fa:	dc 01       	movw	r26, r24
      fc:	e1 ed       	ldi	r30, 0xD1	; 209
      fe:	f1 e0       	ldi	r31, 0x01	; 1
     100:	89 ed       	ldi	r24, 0xD9	; 217
     102:	91 e0       	ldi	r25, 0x01	; 1
     104:	2d 91       	ld	r18, X+
     106:	21 93       	st	Z+, r18
     108:	e8 17       	cp	r30, r24
     10a:	f9 07       	cpc	r31, r25
     10c:	d9 f7       	brne	.-10     	; 0x104 <can_send_message+0x36>
     10e:	60 91 f0 02 	lds	r22, 0x02F0
     112:	85 eb       	ldi	r24, 0xB5	; 181
     114:	93 e0       	ldi	r25, 0x03	; 3
     116:	0e 94 87 01 	call	0x30e	; 0x30e <can_cmd>
     11a:	81 11       	cpse	r24, r1
     11c:	f8 cf       	rjmp	.-16     	; 0x10e <can_send_message+0x40>
     11e:	60 91 f0 02 	lds	r22, 0x02F0
     122:	85 eb       	ldi	r24, 0xB5	; 181
     124:	93 e0       	ldi	r25, 0x03	; 3
     126:	0e 94 b3 07 	call	0xf66	; 0xf66 <can_get_status>
     12a:	81 30       	cpi	r24, 0x01	; 1
     12c:	c1 f3       	breq	.-16     	; 0x11e <can_send_message+0x50>
     12e:	08 95       	ret

00000130 <can_init_mobs>:
     130:	89 ea       	ldi	r24, 0xA9	; 169
     132:	92 e0       	ldi	r25, 0x02	; 2
     134:	90 93 bd 03 	sts	0x03BD, r25
     138:	80 93 bc 03 	sts	0x03BC, r24
     13c:	10 92 c0 03 	sts	0x03C0, r1
     140:	80 91 c0 02 	lds	r24, 0x02C0
     144:	90 e0       	ldi	r25, 0x00	; 0
     146:	90 93 b8 03 	sts	0x03B8, r25
     14a:	80 93 b7 03 	sts	0x03B7, r24
     14e:	85 e0       	ldi	r24, 0x05	; 5
     150:	80 93 b6 03 	sts	0x03B6, r24
     154:	88 e0       	ldi	r24, 0x08	; 8
     156:	80 93 bb 03 	sts	0x03BB, r24
     15a:	10 92 f0 02 	sts	0x02F0, r1
     15e:	60 91 f0 02 	lds	r22, 0x02F0
     162:	85 eb       	ldi	r24, 0xB5	; 181
     164:	93 e0       	ldi	r25, 0x03	; 3
     166:	0e 94 87 01 	call	0x30e	; 0x30e <can_cmd>
     16a:	81 11       	cpse	r24, r1
     16c:	f8 cf       	rjmp	.-16     	; 0x15e <can_init_mobs+0x2e>
     16e:	85 eb       	ldi	r24, 0xB5	; 181
     170:	91 e0       	ldi	r25, 0x01	; 1
     172:	90 93 bd 03 	sts	0x03BD, r25
     176:	80 93 bc 03 	sts	0x03BC, r24
     17a:	10 92 c0 03 	sts	0x03C0, r1
     17e:	80 91 c1 02 	lds	r24, 0x02C1
     182:	90 e0       	ldi	r25, 0x00	; 0
     184:	90 93 b8 03 	sts	0x03B8, r25
     188:	80 93 b7 03 	sts	0x03B7, r24
     18c:	85 e0       	ldi	r24, 0x05	; 5
     18e:	80 93 b6 03 	sts	0x03B6, r24
     192:	88 e0       	ldi	r24, 0x08	; 8
     194:	80 93 bb 03 	sts	0x03BB, r24
     198:	81 e0       	ldi	r24, 0x01	; 1
     19a:	80 93 f0 02 	sts	0x02F0, r24
     19e:	60 91 f0 02 	lds	r22, 0x02F0
     1a2:	85 eb       	ldi	r24, 0xB5	; 181
     1a4:	93 e0       	ldi	r25, 0x03	; 3
     1a6:	0e 94 87 01 	call	0x30e	; 0x30e <can_cmd>
     1aa:	81 11       	cpse	r24, r1
     1ac:	f8 cf       	rjmp	.-16     	; 0x19e <can_init_mobs+0x6e>
     1ae:	8d eb       	ldi	r24, 0xBD	; 189
     1b0:	91 e0       	ldi	r25, 0x01	; 1
     1b2:	90 93 bd 03 	sts	0x03BD, r25
     1b6:	80 93 bc 03 	sts	0x03BC, r24
     1ba:	10 92 c0 03 	sts	0x03C0, r1
     1be:	80 91 c2 02 	lds	r24, 0x02C2
     1c2:	90 e0       	ldi	r25, 0x00	; 0
     1c4:	90 93 b8 03 	sts	0x03B8, r25
     1c8:	80 93 b7 03 	sts	0x03B7, r24
     1cc:	85 e0       	ldi	r24, 0x05	; 5
     1ce:	80 93 b6 03 	sts	0x03B6, r24
     1d2:	88 e0       	ldi	r24, 0x08	; 8
     1d4:	80 93 bb 03 	sts	0x03BB, r24
     1d8:	82 e0       	ldi	r24, 0x02	; 2
     1da:	80 93 f0 02 	sts	0x02F0, r24
     1de:	60 91 f0 02 	lds	r22, 0x02F0
     1e2:	85 eb       	ldi	r24, 0xB5	; 181
     1e4:	93 e0       	ldi	r25, 0x03	; 3
     1e6:	0e 94 87 01 	call	0x30e	; 0x30e <can_cmd>
     1ea:	81 11       	cpse	r24, r1
     1ec:	f8 cf       	rjmp	.-16     	; 0x1de <can_init_mobs+0xae>
     1ee:	88 ec       	ldi	r24, 0xC8	; 200
     1f0:	92 e0       	ldi	r25, 0x02	; 2
     1f2:	90 93 bd 03 	sts	0x03BD, r25
     1f6:	80 93 bc 03 	sts	0x03BC, r24
     1fa:	10 92 c0 03 	sts	0x03C0, r1
     1fe:	80 91 c3 02 	lds	r24, 0x02C3
     202:	90 e0       	ldi	r25, 0x00	; 0
     204:	90 93 b8 03 	sts	0x03B8, r25
     208:	80 93 b7 03 	sts	0x03B7, r24
     20c:	85 e0       	ldi	r24, 0x05	; 5
     20e:	80 93 b6 03 	sts	0x03B6, r24
     212:	88 e0       	ldi	r24, 0x08	; 8
     214:	80 93 bb 03 	sts	0x03BB, r24
     218:	83 e0       	ldi	r24, 0x03	; 3
     21a:	80 93 f0 02 	sts	0x02F0, r24
     21e:	60 91 f0 02 	lds	r22, 0x02F0
     222:	85 eb       	ldi	r24, 0xB5	; 181
     224:	93 e0       	ldi	r25, 0x03	; 3
     226:	0e 94 87 01 	call	0x30e	; 0x30e <can_cmd>
     22a:	81 11       	cpse	r24, r1
     22c:	f8 cf       	rjmp	.-16     	; 0x21e <can_init_mobs+0xee>
     22e:	84 ee       	ldi	r24, 0xE4	; 228
     230:	92 e0       	ldi	r25, 0x02	; 2
     232:	90 93 bd 03 	sts	0x03BD, r25
     236:	80 93 bc 03 	sts	0x03BC, r24
     23a:	10 92 c0 03 	sts	0x03C0, r1
     23e:	80 91 c5 02 	lds	r24, 0x02C5
     242:	90 e0       	ldi	r25, 0x00	; 0
     244:	90 93 b8 03 	sts	0x03B8, r25
     248:	80 93 b7 03 	sts	0x03B7, r24
     24c:	85 e0       	ldi	r24, 0x05	; 5
     24e:	80 93 b6 03 	sts	0x03B6, r24
     252:	98 e0       	ldi	r25, 0x08	; 8
     254:	90 93 bb 03 	sts	0x03BB, r25
     258:	80 93 f0 02 	sts	0x02F0, r24
     25c:	60 91 f0 02 	lds	r22, 0x02F0
     260:	85 eb       	ldi	r24, 0xB5	; 181
     262:	93 e0       	ldi	r25, 0x03	; 3
     264:	0e 94 87 01 	call	0x30e	; 0x30e <can_cmd>
     268:	81 11       	cpse	r24, r1
     26a:	f8 cf       	rjmp	.-16     	; 0x25c <can_init_mobs+0x12c>
     26c:	08 95       	ret

0000026e <can_clear_all_mob>:
     26e:	80 e0       	ldi	r24, 0x00	; 0
     270:	ad ee       	ldi	r26, 0xED	; 237
     272:	b0 e0       	ldi	r27, 0x00	; 0
     274:	3e ee       	ldi	r19, 0xEE	; 238
     276:	20 e0       	ldi	r18, 0x00	; 0
     278:	98 2f       	mov	r25, r24
     27a:	92 95       	swap	r25
     27c:	90 7f       	andi	r25, 0xF0	; 240
     27e:	9c 93       	st	X, r25
     280:	e3 2f       	mov	r30, r19
     282:	f2 2f       	mov	r31, r18
     284:	11 92       	st	Z+, r1
     286:	e8 3f       	cpi	r30, 0xF8	; 248
     288:	f1 05       	cpc	r31, r1
     28a:	e1 f7       	brne	.-8      	; 0x284 <can_clear_all_mob+0x16>
     28c:	8f 5f       	subi	r24, 0xFF	; 255
     28e:	86 30       	cpi	r24, 0x06	; 6
     290:	99 f7       	brne	.-26     	; 0x278 <can_clear_all_mob+0xa>
     292:	08 95       	ret

00000294 <can_get_mob_status>:
     294:	80 91 ef 00 	lds	r24, 0x00EF
     298:	80 7c       	andi	r24, 0xC0	; 192
     29a:	61 f0       	breq	.+24     	; 0x2b4 <can_get_mob_status+0x20>
     29c:	80 91 ee 00 	lds	r24, 0x00EE
     2a0:	98 2f       	mov	r25, r24
     2a2:	90 7e       	andi	r25, 0xE0	; 224
     2a4:	28 2f       	mov	r18, r24
     2a6:	20 76       	andi	r18, 0x60	; 96
     2a8:	20 32       	cpi	r18, 0x20	; 32
     2aa:	31 f0       	breq	.+12     	; 0x2b8 <can_get_mob_status+0x24>
     2ac:	90 34       	cpi	r25, 0x40	; 64
     2ae:	31 f0       	breq	.+12     	; 0x2bc <can_get_mob_status+0x28>
     2b0:	8f 71       	andi	r24, 0x1F	; 31
     2b2:	08 95       	ret
     2b4:	8f ef       	ldi	r24, 0xFF	; 255
     2b6:	08 95       	ret
     2b8:	89 2f       	mov	r24, r25
     2ba:	08 95       	ret
     2bc:	89 2f       	mov	r24, r25
     2be:	08 95       	ret

000002c0 <can_get_data>:
     2c0:	fc 01       	movw	r30, r24
     2c2:	80 e0       	ldi	r24, 0x00	; 0
     2c4:	aa ef       	ldi	r26, 0xFA	; 250
     2c6:	b0 e0       	ldi	r27, 0x00	; 0
     2c8:	9c 91       	ld	r25, X
     2ca:	91 93       	st	Z+, r25
     2cc:	8f 5f       	subi	r24, 0xFF	; 255
     2ce:	88 30       	cpi	r24, 0x08	; 8
     2d0:	d9 f7       	brne	.-10     	; 0x2c8 <can_get_data+0x8>
     2d2:	08 95       	ret

000002d4 <can_fixed_baudrate>:
     2d4:	81 e0       	ldi	r24, 0x01	; 1
     2d6:	80 93 d8 00 	sts	0x00D8, r24
     2da:	82 e0       	ldi	r24, 0x02	; 2
     2dc:	80 93 e2 00 	sts	0x00E2, r24
     2e0:	8c e0       	ldi	r24, 0x0C	; 12
     2e2:	80 93 e3 00 	sts	0x00E3, r24
     2e6:	87 e3       	ldi	r24, 0x37	; 55
     2e8:	80 93 e4 00 	sts	0x00E4, r24
     2ec:	81 e0       	ldi	r24, 0x01	; 1
     2ee:	08 95       	ret

000002f0 <can_init>:
     2f0:	0e 94 6a 01 	call	0x2d4	; 0x2d4 <can_fixed_baudrate>
     2f4:	88 23       	and	r24, r24
     2f6:	49 f0       	breq	.+18     	; 0x30a <can_init+0x1a>
     2f8:	0e 94 37 01 	call	0x26e	; 0x26e <can_clear_all_mob>
     2fc:	e8 ed       	ldi	r30, 0xD8	; 216
     2fe:	f0 e0       	ldi	r31, 0x00	; 0
     300:	80 81       	ld	r24, Z
     302:	82 60       	ori	r24, 0x02	; 2
     304:	80 83       	st	Z, r24
     306:	81 e0       	ldi	r24, 0x01	; 1
     308:	08 95       	ret
     30a:	80 e0       	ldi	r24, 0x00	; 0
     30c:	08 95       	ret

0000030e <can_cmd>:
     30e:	cf 93       	push	r28
     310:	df 93       	push	r29
     312:	1f 92       	push	r1
     314:	cd b7       	in	r28, 0x3d	; 61
     316:	de b7       	in	r29, 0x3e	; 62
     318:	dc 01       	movw	r26, r24
     31a:	11 96       	adiw	r26, 0x01	; 1
     31c:	8c 91       	ld	r24, X
     31e:	11 97       	sbiw	r26, 0x01	; 1
     320:	8c 30       	cpi	r24, 0x0C	; 12
     322:	b1 f4       	brne	.+44     	; 0x350 <can_cmd+0x42>
     324:	19 96       	adiw	r26, 0x09	; 9
     326:	8c 91       	ld	r24, X
     328:	19 97       	sbiw	r26, 0x09	; 9
     32a:	80 36       	cpi	r24, 0x60	; 96
     32c:	69 f4       	brne	.+26     	; 0x348 <can_cmd+0x3a>
     32e:	86 2f       	mov	r24, r22
     330:	82 95       	swap	r24
     332:	80 7f       	andi	r24, 0xF0	; 240
     334:	80 93 ed 00 	sts	0x00ED, r24
     338:	ef ee       	ldi	r30, 0xEF	; 239
     33a:	f0 e0       	ldi	r31, 0x00	; 0
     33c:	80 81       	ld	r24, Z
     33e:	8f 73       	andi	r24, 0x3F	; 63
     340:	80 83       	st	Z, r24
     342:	10 92 ee 00 	sts	0x00EE, r1
     346:	6c 93       	st	X, r22
     348:	19 96       	adiw	r26, 0x09	; 9
     34a:	1c 92       	st	X, r1
     34c:	80 e0       	ldi	r24, 0x00	; 0
     34e:	07 c6       	rjmp	.+3086   	; 0xf5e <__stack+0x65f>
     350:	86 2f       	mov	r24, r22
     352:	82 95       	swap	r24
     354:	80 7f       	andi	r24, 0xF0	; 240
     356:	80 93 ed 00 	sts	0x00ED, r24
     35a:	80 91 ef 00 	lds	r24, 0x00EF
     35e:	80 7c       	andi	r24, 0xC0	; 192
     360:	09 f0       	breq	.+2      	; 0x364 <can_cmd+0x56>
     362:	f9 c5       	rjmp	.+3058   	; 0xf56 <__stack+0x657>
     364:	80 e6       	ldi	r24, 0x60	; 96
     366:	19 96       	adiw	r26, 0x09	; 9
     368:	8c 93       	st	X, r24
     36a:	19 97       	sbiw	r26, 0x09	; 9
     36c:	6c 93       	st	X, r22
     36e:	ee ee       	ldi	r30, 0xEE	; 238
     370:	f0 e0       	ldi	r31, 0x00	; 0
     372:	11 92       	st	Z+, r1
     374:	e8 3f       	cpi	r30, 0xF8	; 248
     376:	f1 05       	cpc	r31, r1
     378:	e1 f7       	brne	.-8      	; 0x372 <can_cmd+0x64>
     37a:	11 96       	adiw	r26, 0x01	; 1
     37c:	4c 91       	ld	r20, X
     37e:	11 97       	sbiw	r26, 0x01	; 1
     380:	50 e0       	ldi	r21, 0x00	; 0
     382:	fa 01       	movw	r30, r20
     384:	31 97       	sbiw	r30, 0x01	; 1
     386:	eb 30       	cpi	r30, 0x0B	; 11
     388:	f1 05       	cpc	r31, r1
     38a:	08 f0       	brcs	.+2      	; 0x38e <can_cmd+0x80>
     38c:	e0 c5       	rjmp	.+3008   	; 0xf4e <__stack+0x64f>
     38e:	e2 5c       	subi	r30, 0xC2	; 194
     390:	ff 4f       	sbci	r31, 0xFF	; 255
     392:	0c 94 01 11 	jmp	0x2202	; 0x2202 <__tablejump2__>
     396:	16 96       	adiw	r26, 0x06	; 6
     398:	8c 91       	ld	r24, X
     39a:	16 97       	sbiw	r26, 0x06	; 6
     39c:	81 11       	cpse	r24, r1
     39e:	b7 c4       	rjmp	.+2414   	; 0xd0e <__stack+0x40f>
     3a0:	c8 c4       	rjmp	.+2448   	; 0xd32 <__stack+0x433>
     3a2:	1b 96       	adiw	r26, 0x0b	; 11
     3a4:	8c 91       	ld	r24, X
     3a6:	1b 97       	sbiw	r26, 0x0b	; 11
     3a8:	88 23       	and	r24, r24
     3aa:	d9 f1       	breq	.+118    	; 0x422 <can_cmd+0x114>
     3ac:	14 96       	adiw	r26, 0x04	; 4
     3ae:	9c 91       	ld	r25, X
     3b0:	14 97       	sbiw	r26, 0x04	; 4
     3b2:	92 95       	swap	r25
     3b4:	96 95       	lsr	r25
     3b6:	97 70       	andi	r25, 0x07	; 7
     3b8:	15 96       	adiw	r26, 0x05	; 5
     3ba:	8c 91       	ld	r24, X
     3bc:	15 97       	sbiw	r26, 0x05	; 5
     3be:	88 0f       	add	r24, r24
     3c0:	88 0f       	add	r24, r24
     3c2:	88 0f       	add	r24, r24
     3c4:	89 0f       	add	r24, r25
     3c6:	80 93 f3 00 	sts	0x00F3, r24
     3ca:	13 96       	adiw	r26, 0x03	; 3
     3cc:	9c 91       	ld	r25, X
     3ce:	13 97       	sbiw	r26, 0x03	; 3
     3d0:	92 95       	swap	r25
     3d2:	96 95       	lsr	r25
     3d4:	97 70       	andi	r25, 0x07	; 7
     3d6:	14 96       	adiw	r26, 0x04	; 4
     3d8:	8c 91       	ld	r24, X
     3da:	14 97       	sbiw	r26, 0x04	; 4
     3dc:	88 0f       	add	r24, r24
     3de:	88 0f       	add	r24, r24
     3e0:	88 0f       	add	r24, r24
     3e2:	89 0f       	add	r24, r25
     3e4:	80 93 f2 00 	sts	0x00F2, r24
     3e8:	12 96       	adiw	r26, 0x02	; 2
     3ea:	9c 91       	ld	r25, X
     3ec:	12 97       	sbiw	r26, 0x02	; 2
     3ee:	92 95       	swap	r25
     3f0:	96 95       	lsr	r25
     3f2:	97 70       	andi	r25, 0x07	; 7
     3f4:	13 96       	adiw	r26, 0x03	; 3
     3f6:	8c 91       	ld	r24, X
     3f8:	13 97       	sbiw	r26, 0x03	; 3
     3fa:	88 0f       	add	r24, r24
     3fc:	88 0f       	add	r24, r24
     3fe:	88 0f       	add	r24, r24
     400:	89 0f       	add	r24, r25
     402:	80 93 f1 00 	sts	0x00F1, r24
     406:	12 96       	adiw	r26, 0x02	; 2
     408:	8c 91       	ld	r24, X
     40a:	12 97       	sbiw	r26, 0x02	; 2
     40c:	88 0f       	add	r24, r24
     40e:	88 0f       	add	r24, r24
     410:	88 0f       	add	r24, r24
     412:	80 93 f0 00 	sts	0x00F0, r24
     416:	ef ee       	ldi	r30, 0xEF	; 239
     418:	f0 e0       	ldi	r31, 0x00	; 0
     41a:	80 81       	ld	r24, Z
     41c:	80 61       	ori	r24, 0x10	; 16
     41e:	80 83       	st	Z, r24
     420:	1c c0       	rjmp	.+56     	; 0x45a <can_cmd+0x14c>
     422:	12 96       	adiw	r26, 0x02	; 2
     424:	8c 91       	ld	r24, X
     426:	12 97       	sbiw	r26, 0x02	; 2
     428:	86 95       	lsr	r24
     42a:	86 95       	lsr	r24
     42c:	86 95       	lsr	r24
     42e:	13 96       	adiw	r26, 0x03	; 3
     430:	9c 91       	ld	r25, X
     432:	13 97       	sbiw	r26, 0x03	; 3
     434:	20 e2       	ldi	r18, 0x20	; 32
     436:	92 9f       	mul	r25, r18
     438:	80 0d       	add	r24, r0
     43a:	11 24       	eor	r1, r1
     43c:	80 93 f3 00 	sts	0x00F3, r24
     440:	12 96       	adiw	r26, 0x02	; 2
     442:	8c 91       	ld	r24, X
     444:	12 97       	sbiw	r26, 0x02	; 2
     446:	82 95       	swap	r24
     448:	88 0f       	add	r24, r24
     44a:	80 7e       	andi	r24, 0xE0	; 224
     44c:	80 93 f2 00 	sts	0x00F2, r24
     450:	ef ee       	ldi	r30, 0xEF	; 239
     452:	f0 e0       	ldi	r31, 0x00	; 0
     454:	80 81       	ld	r24, Z
     456:	8f 7e       	andi	r24, 0xEF	; 239
     458:	80 83       	st	Z, r24
     45a:	16 96       	adiw	r26, 0x06	; 6
     45c:	8c 91       	ld	r24, X
     45e:	16 97       	sbiw	r26, 0x06	; 6
     460:	88 23       	and	r24, r24
     462:	91 f0       	breq	.+36     	; 0x488 <can_cmd+0x17a>
     464:	20 e0       	ldi	r18, 0x00	; 0
     466:	8a ef       	ldi	r24, 0xFA	; 250
     468:	90 e0       	ldi	r25, 0x00	; 0
     46a:	17 96       	adiw	r26, 0x07	; 7
     46c:	ed 91       	ld	r30, X+
     46e:	fc 91       	ld	r31, X
     470:	18 97       	sbiw	r26, 0x08	; 8
     472:	e2 0f       	add	r30, r18
     474:	f1 1d       	adc	r31, r1
     476:	30 81       	ld	r19, Z
     478:	fc 01       	movw	r30, r24
     47a:	30 83       	st	Z, r19
     47c:	2f 5f       	subi	r18, 0xFF	; 255
     47e:	16 96       	adiw	r26, 0x06	; 6
     480:	3c 91       	ld	r19, X
     482:	16 97       	sbiw	r26, 0x06	; 6
     484:	23 17       	cp	r18, r19
     486:	88 f3       	brcs	.-30     	; 0x46a <can_cmd+0x15c>
     488:	1a 96       	adiw	r26, 0x0a	; 10
     48a:	8c 91       	ld	r24, X
     48c:	1a 97       	sbiw	r26, 0x0a	; 10
     48e:	88 23       	and	r24, r24
     490:	31 f0       	breq	.+12     	; 0x49e <can_cmd+0x190>
     492:	e0 ef       	ldi	r30, 0xF0	; 240
     494:	f0 e0       	ldi	r31, 0x00	; 0
     496:	80 81       	ld	r24, Z
     498:	84 60       	ori	r24, 0x04	; 4
     49a:	80 83       	st	Z, r24
     49c:	05 c0       	rjmp	.+10     	; 0x4a8 <can_cmd+0x19a>
     49e:	e0 ef       	ldi	r30, 0xF0	; 240
     4a0:	f0 e0       	ldi	r31, 0x00	; 0
     4a2:	80 81       	ld	r24, Z
     4a4:	8b 7f       	andi	r24, 0xFB	; 251
     4a6:	80 83       	st	Z, r24
     4a8:	ef ee       	ldi	r30, 0xEF	; 239
     4aa:	f0 e0       	ldi	r31, 0x00	; 0
     4ac:	90 81       	ld	r25, Z
     4ae:	16 96       	adiw	r26, 0x06	; 6
     4b0:	8c 91       	ld	r24, X
     4b2:	89 2b       	or	r24, r25
     4b4:	80 83       	st	Z, r24
     4b6:	80 81       	ld	r24, Z
     4b8:	8f 73       	andi	r24, 0x3F	; 63
     4ba:	80 83       	st	Z, r24
     4bc:	80 81       	ld	r24, Z
     4be:	80 64       	ori	r24, 0x40	; 64
     4c0:	80 83       	st	Z, r24
     4c2:	80 e0       	ldi	r24, 0x00	; 0
     4c4:	4c c5       	rjmp	.+2712   	; 0xf5e <__stack+0x65f>
     4c6:	1b 96       	adiw	r26, 0x0b	; 11
     4c8:	8c 91       	ld	r24, X
     4ca:	1b 97       	sbiw	r26, 0x0b	; 11
     4cc:	88 23       	and	r24, r24
     4ce:	d9 f1       	breq	.+118    	; 0x546 <can_cmd+0x238>
     4d0:	14 96       	adiw	r26, 0x04	; 4
     4d2:	9c 91       	ld	r25, X
     4d4:	14 97       	sbiw	r26, 0x04	; 4
     4d6:	92 95       	swap	r25
     4d8:	96 95       	lsr	r25
     4da:	97 70       	andi	r25, 0x07	; 7
     4dc:	15 96       	adiw	r26, 0x05	; 5
     4de:	8c 91       	ld	r24, X
     4e0:	15 97       	sbiw	r26, 0x05	; 5
     4e2:	88 0f       	add	r24, r24
     4e4:	88 0f       	add	r24, r24
     4e6:	88 0f       	add	r24, r24
     4e8:	89 0f       	add	r24, r25
     4ea:	80 93 f3 00 	sts	0x00F3, r24
     4ee:	13 96       	adiw	r26, 0x03	; 3
     4f0:	9c 91       	ld	r25, X
     4f2:	13 97       	sbiw	r26, 0x03	; 3
     4f4:	92 95       	swap	r25
     4f6:	96 95       	lsr	r25
     4f8:	97 70       	andi	r25, 0x07	; 7
     4fa:	14 96       	adiw	r26, 0x04	; 4
     4fc:	8c 91       	ld	r24, X
     4fe:	14 97       	sbiw	r26, 0x04	; 4
     500:	88 0f       	add	r24, r24
     502:	88 0f       	add	r24, r24
     504:	88 0f       	add	r24, r24
     506:	89 0f       	add	r24, r25
     508:	80 93 f2 00 	sts	0x00F2, r24
     50c:	12 96       	adiw	r26, 0x02	; 2
     50e:	9c 91       	ld	r25, X
     510:	12 97       	sbiw	r26, 0x02	; 2
     512:	92 95       	swap	r25
     514:	96 95       	lsr	r25
     516:	97 70       	andi	r25, 0x07	; 7
     518:	13 96       	adiw	r26, 0x03	; 3
     51a:	8c 91       	ld	r24, X
     51c:	13 97       	sbiw	r26, 0x03	; 3
     51e:	88 0f       	add	r24, r24
     520:	88 0f       	add	r24, r24
     522:	88 0f       	add	r24, r24
     524:	89 0f       	add	r24, r25
     526:	80 93 f1 00 	sts	0x00F1, r24
     52a:	12 96       	adiw	r26, 0x02	; 2
     52c:	8c 91       	ld	r24, X
     52e:	12 97       	sbiw	r26, 0x02	; 2
     530:	88 0f       	add	r24, r24
     532:	88 0f       	add	r24, r24
     534:	88 0f       	add	r24, r24
     536:	80 93 f0 00 	sts	0x00F0, r24
     53a:	ef ee       	ldi	r30, 0xEF	; 239
     53c:	f0 e0       	ldi	r31, 0x00	; 0
     53e:	80 81       	ld	r24, Z
     540:	80 61       	ori	r24, 0x10	; 16
     542:	80 83       	st	Z, r24
     544:	1c c0       	rjmp	.+56     	; 0x57e <can_cmd+0x270>
     546:	12 96       	adiw	r26, 0x02	; 2
     548:	8c 91       	ld	r24, X
     54a:	12 97       	sbiw	r26, 0x02	; 2
     54c:	86 95       	lsr	r24
     54e:	86 95       	lsr	r24
     550:	86 95       	lsr	r24
     552:	13 96       	adiw	r26, 0x03	; 3
     554:	9c 91       	ld	r25, X
     556:	13 97       	sbiw	r26, 0x03	; 3
     558:	f0 e2       	ldi	r31, 0x20	; 32
     55a:	9f 9f       	mul	r25, r31
     55c:	80 0d       	add	r24, r0
     55e:	11 24       	eor	r1, r1
     560:	80 93 f3 00 	sts	0x00F3, r24
     564:	12 96       	adiw	r26, 0x02	; 2
     566:	8c 91       	ld	r24, X
     568:	12 97       	sbiw	r26, 0x02	; 2
     56a:	82 95       	swap	r24
     56c:	88 0f       	add	r24, r24
     56e:	80 7e       	andi	r24, 0xE0	; 224
     570:	80 93 f2 00 	sts	0x00F2, r24
     574:	ef ee       	ldi	r30, 0xEF	; 239
     576:	f0 e0       	ldi	r31, 0x00	; 0
     578:	80 81       	ld	r24, Z
     57a:	8f 7e       	andi	r24, 0xEF	; 239
     57c:	80 83       	st	Z, r24
     57e:	16 96       	adiw	r26, 0x06	; 6
     580:	8c 91       	ld	r24, X
     582:	16 97       	sbiw	r26, 0x06	; 6
     584:	88 23       	and	r24, r24
     586:	91 f0       	breq	.+36     	; 0x5ac <can_cmd+0x29e>
     588:	20 e0       	ldi	r18, 0x00	; 0
     58a:	8a ef       	ldi	r24, 0xFA	; 250
     58c:	90 e0       	ldi	r25, 0x00	; 0
     58e:	17 96       	adiw	r26, 0x07	; 7
     590:	ed 91       	ld	r30, X+
     592:	fc 91       	ld	r31, X
     594:	18 97       	sbiw	r26, 0x08	; 8
     596:	e2 0f       	add	r30, r18
     598:	f1 1d       	adc	r31, r1
     59a:	30 81       	ld	r19, Z
     59c:	fc 01       	movw	r30, r24
     59e:	30 83       	st	Z, r19
     5a0:	2f 5f       	subi	r18, 0xFF	; 255
     5a2:	16 96       	adiw	r26, 0x06	; 6
     5a4:	3c 91       	ld	r19, X
     5a6:	16 97       	sbiw	r26, 0x06	; 6
     5a8:	23 17       	cp	r18, r19
     5aa:	88 f3       	brcs	.-30     	; 0x58e <can_cmd+0x280>
     5ac:	1a 96       	adiw	r26, 0x0a	; 10
     5ae:	1c 92       	st	X, r1
     5b0:	1a 97       	sbiw	r26, 0x0a	; 10
     5b2:	e0 ef       	ldi	r30, 0xF0	; 240
     5b4:	f0 e0       	ldi	r31, 0x00	; 0
     5b6:	80 81       	ld	r24, Z
     5b8:	8b 7f       	andi	r24, 0xFB	; 251
     5ba:	80 83       	st	Z, r24
     5bc:	ef ee       	ldi	r30, 0xEF	; 239
     5be:	f0 e0       	ldi	r31, 0x00	; 0
     5c0:	90 81       	ld	r25, Z
     5c2:	16 96       	adiw	r26, 0x06	; 6
     5c4:	8c 91       	ld	r24, X
     5c6:	89 2b       	or	r24, r25
     5c8:	80 83       	st	Z, r24
     5ca:	80 81       	ld	r24, Z
     5cc:	8f 73       	andi	r24, 0x3F	; 63
     5ce:	80 83       	st	Z, r24
     5d0:	80 81       	ld	r24, Z
     5d2:	80 64       	ori	r24, 0x40	; 64
     5d4:	80 83       	st	Z, r24
     5d6:	80 e0       	ldi	r24, 0x00	; 0
     5d8:	c2 c4       	rjmp	.+2436   	; 0xf5e <__stack+0x65f>
     5da:	1b 96       	adiw	r26, 0x0b	; 11
     5dc:	8c 91       	ld	r24, X
     5de:	1b 97       	sbiw	r26, 0x0b	; 11
     5e0:	88 23       	and	r24, r24
     5e2:	d9 f1       	breq	.+118    	; 0x65a <can_cmd+0x34c>
     5e4:	14 96       	adiw	r26, 0x04	; 4
     5e6:	9c 91       	ld	r25, X
     5e8:	14 97       	sbiw	r26, 0x04	; 4
     5ea:	92 95       	swap	r25
     5ec:	96 95       	lsr	r25
     5ee:	97 70       	andi	r25, 0x07	; 7
     5f0:	15 96       	adiw	r26, 0x05	; 5
     5f2:	8c 91       	ld	r24, X
     5f4:	15 97       	sbiw	r26, 0x05	; 5
     5f6:	88 0f       	add	r24, r24
     5f8:	88 0f       	add	r24, r24
     5fa:	88 0f       	add	r24, r24
     5fc:	89 0f       	add	r24, r25
     5fe:	80 93 f3 00 	sts	0x00F3, r24
     602:	13 96       	adiw	r26, 0x03	; 3
     604:	9c 91       	ld	r25, X
     606:	13 97       	sbiw	r26, 0x03	; 3
     608:	92 95       	swap	r25
     60a:	96 95       	lsr	r25
     60c:	97 70       	andi	r25, 0x07	; 7
     60e:	14 96       	adiw	r26, 0x04	; 4
     610:	8c 91       	ld	r24, X
     612:	14 97       	sbiw	r26, 0x04	; 4
     614:	88 0f       	add	r24, r24
     616:	88 0f       	add	r24, r24
     618:	88 0f       	add	r24, r24
     61a:	89 0f       	add	r24, r25
     61c:	80 93 f2 00 	sts	0x00F2, r24
     620:	12 96       	adiw	r26, 0x02	; 2
     622:	9c 91       	ld	r25, X
     624:	12 97       	sbiw	r26, 0x02	; 2
     626:	92 95       	swap	r25
     628:	96 95       	lsr	r25
     62a:	97 70       	andi	r25, 0x07	; 7
     62c:	13 96       	adiw	r26, 0x03	; 3
     62e:	8c 91       	ld	r24, X
     630:	13 97       	sbiw	r26, 0x03	; 3
     632:	88 0f       	add	r24, r24
     634:	88 0f       	add	r24, r24
     636:	88 0f       	add	r24, r24
     638:	89 0f       	add	r24, r25
     63a:	80 93 f1 00 	sts	0x00F1, r24
     63e:	12 96       	adiw	r26, 0x02	; 2
     640:	8c 91       	ld	r24, X
     642:	12 97       	sbiw	r26, 0x02	; 2
     644:	88 0f       	add	r24, r24
     646:	88 0f       	add	r24, r24
     648:	88 0f       	add	r24, r24
     64a:	80 93 f0 00 	sts	0x00F0, r24
     64e:	ef ee       	ldi	r30, 0xEF	; 239
     650:	f0 e0       	ldi	r31, 0x00	; 0
     652:	80 81       	ld	r24, Z
     654:	80 61       	ori	r24, 0x10	; 16
     656:	80 83       	st	Z, r24
     658:	1c c0       	rjmp	.+56     	; 0x692 <can_cmd+0x384>
     65a:	12 96       	adiw	r26, 0x02	; 2
     65c:	8c 91       	ld	r24, X
     65e:	12 97       	sbiw	r26, 0x02	; 2
     660:	86 95       	lsr	r24
     662:	86 95       	lsr	r24
     664:	86 95       	lsr	r24
     666:	13 96       	adiw	r26, 0x03	; 3
     668:	9c 91       	ld	r25, X
     66a:	13 97       	sbiw	r26, 0x03	; 3
     66c:	f0 e2       	ldi	r31, 0x20	; 32
     66e:	9f 9f       	mul	r25, r31
     670:	80 0d       	add	r24, r0
     672:	11 24       	eor	r1, r1
     674:	80 93 f3 00 	sts	0x00F3, r24
     678:	12 96       	adiw	r26, 0x02	; 2
     67a:	8c 91       	ld	r24, X
     67c:	12 97       	sbiw	r26, 0x02	; 2
     67e:	82 95       	swap	r24
     680:	88 0f       	add	r24, r24
     682:	80 7e       	andi	r24, 0xE0	; 224
     684:	80 93 f2 00 	sts	0x00F2, r24
     688:	ef ee       	ldi	r30, 0xEF	; 239
     68a:	f0 e0       	ldi	r31, 0x00	; 0
     68c:	80 81       	ld	r24, Z
     68e:	8f 7e       	andi	r24, 0xEF	; 239
     690:	80 83       	st	Z, r24
     692:	81 e0       	ldi	r24, 0x01	; 1
     694:	1a 96       	adiw	r26, 0x0a	; 10
     696:	8c 93       	st	X, r24
     698:	1a 97       	sbiw	r26, 0x0a	; 10
     69a:	e0 ef       	ldi	r30, 0xF0	; 240
     69c:	f0 e0       	ldi	r31, 0x00	; 0
     69e:	80 81       	ld	r24, Z
     6a0:	84 60       	ori	r24, 0x04	; 4
     6a2:	80 83       	st	Z, r24
     6a4:	ef ee       	ldi	r30, 0xEF	; 239
     6a6:	f0 e0       	ldi	r31, 0x00	; 0
     6a8:	90 81       	ld	r25, Z
     6aa:	16 96       	adiw	r26, 0x06	; 6
     6ac:	8c 91       	ld	r24, X
     6ae:	89 2b       	or	r24, r25
     6b0:	80 83       	st	Z, r24
     6b2:	80 81       	ld	r24, Z
     6b4:	8f 73       	andi	r24, 0x3F	; 63
     6b6:	80 83       	st	Z, r24
     6b8:	80 81       	ld	r24, Z
     6ba:	80 64       	ori	r24, 0x40	; 64
     6bc:	80 83       	st	Z, r24
     6be:	80 e0       	ldi	r24, 0x00	; 0
     6c0:	4e c4       	rjmp	.+2204   	; 0xf5e <__stack+0x65f>
     6c2:	19 82       	std	Y+1, r1	; 0x01
     6c4:	9b 81       	ldd	r25, Y+3	; 0x03
     6c6:	92 95       	swap	r25
     6c8:	96 95       	lsr	r25
     6ca:	97 70       	andi	r25, 0x07	; 7
     6cc:	8c 81       	ldd	r24, Y+4	; 0x04
     6ce:	88 0f       	add	r24, r24
     6d0:	88 0f       	add	r24, r24
     6d2:	88 0f       	add	r24, r24
     6d4:	89 0f       	add	r24, r25
     6d6:	80 93 f7 00 	sts	0x00F7, r24
     6da:	9a 81       	ldd	r25, Y+2	; 0x02
     6dc:	92 95       	swap	r25
     6de:	96 95       	lsr	r25
     6e0:	97 70       	andi	r25, 0x07	; 7
     6e2:	8b 81       	ldd	r24, Y+3	; 0x03
     6e4:	88 0f       	add	r24, r24
     6e6:	88 0f       	add	r24, r24
     6e8:	88 0f       	add	r24, r24
     6ea:	89 0f       	add	r24, r25
     6ec:	80 93 f6 00 	sts	0x00F6, r24
     6f0:	99 81       	ldd	r25, Y+1	; 0x01
     6f2:	92 95       	swap	r25
     6f4:	96 95       	lsr	r25
     6f6:	97 70       	andi	r25, 0x07	; 7
     6f8:	8a 81       	ldd	r24, Y+2	; 0x02
     6fa:	88 0f       	add	r24, r24
     6fc:	88 0f       	add	r24, r24
     6fe:	88 0f       	add	r24, r24
     700:	89 0f       	add	r24, r25
     702:	80 93 f5 00 	sts	0x00F5, r24
     706:	29 81       	ldd	r18, Y+1	; 0x01
     708:	22 0f       	add	r18, r18
     70a:	22 0f       	add	r18, r18
     70c:	22 0f       	add	r18, r18
     70e:	84 ef       	ldi	r24, 0xF4	; 244
     710:	90 e0       	ldi	r25, 0x00	; 0
     712:	fc 01       	movw	r30, r24
     714:	20 83       	st	Z, r18
     716:	ef ee       	ldi	r30, 0xEF	; 239
     718:	f0 e0       	ldi	r31, 0x00	; 0
     71a:	30 81       	ld	r19, Z
     71c:	16 96       	adiw	r26, 0x06	; 6
     71e:	2c 91       	ld	r18, X
     720:	23 2b       	or	r18, r19
     722:	20 83       	st	Z, r18
     724:	dc 01       	movw	r26, r24
     726:	2c 91       	ld	r18, X
     728:	2b 7f       	andi	r18, 0xFB	; 251
     72a:	2c 93       	st	X, r18
     72c:	2c 91       	ld	r18, X
     72e:	2e 7f       	andi	r18, 0xFE	; 254
     730:	2c 93       	st	X, r18
     732:	80 81       	ld	r24, Z
     734:	8f 73       	andi	r24, 0x3F	; 63
     736:	80 83       	st	Z, r24
     738:	80 81       	ld	r24, Z
     73a:	80 68       	ori	r24, 0x80	; 128
     73c:	80 83       	st	Z, r24
     73e:	80 e0       	ldi	r24, 0x00	; 0
     740:	0e c4       	rjmp	.+2076   	; 0xf5e <__stack+0x65f>
     742:	8f ef       	ldi	r24, 0xFF	; 255
     744:	89 83       	std	Y+1, r24	; 0x01
     746:	8a 81       	ldd	r24, Y+2	; 0x02
     748:	82 95       	swap	r24
     74a:	88 0f       	add	r24, r24
     74c:	80 7e       	andi	r24, 0xE0	; 224
     74e:	81 5e       	subi	r24, 0xE1	; 225
     750:	27 ef       	ldi	r18, 0xF7	; 247
     752:	30 e0       	ldi	r19, 0x00	; 0
     754:	f9 01       	movw	r30, r18
     756:	80 83       	st	Z, r24
     758:	49 81       	ldd	r20, Y+1	; 0x01
     75a:	42 95       	swap	r20
     75c:	44 0f       	add	r20, r20
     75e:	40 7e       	andi	r20, 0xE0	; 224
     760:	86 ef       	ldi	r24, 0xF6	; 246
     762:	90 e0       	ldi	r25, 0x00	; 0
     764:	fc 01       	movw	r30, r24
     766:	40 83       	st	Z, r20
     768:	12 96       	adiw	r26, 0x02	; 2
     76a:	4c 91       	ld	r20, X
     76c:	12 97       	sbiw	r26, 0x02	; 2
     76e:	46 95       	lsr	r20
     770:	46 95       	lsr	r20
     772:	46 95       	lsr	r20
     774:	13 96       	adiw	r26, 0x03	; 3
     776:	5c 91       	ld	r21, X
     778:	13 97       	sbiw	r26, 0x03	; 3
     77a:	f0 e2       	ldi	r31, 0x20	; 32
     77c:	5f 9f       	mul	r21, r31
     77e:	40 0d       	add	r20, r0
     780:	11 24       	eor	r1, r1
     782:	40 93 f3 00 	sts	0x00F3, r20
     786:	12 96       	adiw	r26, 0x02	; 2
     788:	4c 91       	ld	r20, X
     78a:	12 97       	sbiw	r26, 0x02	; 2
     78c:	42 95       	swap	r20
     78e:	44 0f       	add	r20, r20
     790:	40 7e       	andi	r20, 0xE0	; 224
     792:	40 93 f2 00 	sts	0x00F2, r20
     796:	6f ee       	ldi	r22, 0xEF	; 239
     798:	70 e0       	ldi	r23, 0x00	; 0
     79a:	fb 01       	movw	r30, r22
     79c:	40 81       	ld	r20, Z
     79e:	4f 7e       	andi	r20, 0xEF	; 239
     7a0:	40 83       	st	Z, r20
     7a2:	19 82       	std	Y+1, r1	; 0x01
     7a4:	5b 81       	ldd	r21, Y+3	; 0x03
     7a6:	52 95       	swap	r21
     7a8:	56 95       	lsr	r21
     7aa:	57 70       	andi	r21, 0x07	; 7
     7ac:	4c 81       	ldd	r20, Y+4	; 0x04
     7ae:	44 0f       	add	r20, r20
     7b0:	44 0f       	add	r20, r20
     7b2:	44 0f       	add	r20, r20
     7b4:	45 0f       	add	r20, r21
     7b6:	f9 01       	movw	r30, r18
     7b8:	40 83       	st	Z, r20
     7ba:	3a 81       	ldd	r19, Y+2	; 0x02
     7bc:	32 95       	swap	r19
     7be:	36 95       	lsr	r19
     7c0:	37 70       	andi	r19, 0x07	; 7
     7c2:	2b 81       	ldd	r18, Y+3	; 0x03
     7c4:	22 0f       	add	r18, r18
     7c6:	22 0f       	add	r18, r18
     7c8:	22 0f       	add	r18, r18
     7ca:	23 0f       	add	r18, r19
     7cc:	fc 01       	movw	r30, r24
     7ce:	20 83       	st	Z, r18
     7d0:	99 81       	ldd	r25, Y+1	; 0x01
     7d2:	92 95       	swap	r25
     7d4:	96 95       	lsr	r25
     7d6:	97 70       	andi	r25, 0x07	; 7
     7d8:	8a 81       	ldd	r24, Y+2	; 0x02
     7da:	88 0f       	add	r24, r24
     7dc:	88 0f       	add	r24, r24
     7de:	88 0f       	add	r24, r24
     7e0:	89 0f       	add	r24, r25
     7e2:	80 93 f5 00 	sts	0x00F5, r24
     7e6:	29 81       	ldd	r18, Y+1	; 0x01
     7e8:	22 0f       	add	r18, r18
     7ea:	22 0f       	add	r18, r18
     7ec:	22 0f       	add	r18, r18
     7ee:	84 ef       	ldi	r24, 0xF4	; 244
     7f0:	90 e0       	ldi	r25, 0x00	; 0
     7f2:	fc 01       	movw	r30, r24
     7f4:	20 83       	st	Z, r18
     7f6:	fb 01       	movw	r30, r22
     7f8:	30 81       	ld	r19, Z
     7fa:	16 96       	adiw	r26, 0x06	; 6
     7fc:	2c 91       	ld	r18, X
     7fe:	16 97       	sbiw	r26, 0x06	; 6
     800:	23 2b       	or	r18, r19
     802:	20 83       	st	Z, r18
     804:	1a 96       	adiw	r26, 0x0a	; 10
     806:	1c 92       	st	X, r1
     808:	dc 01       	movw	r26, r24
     80a:	2c 91       	ld	r18, X
     80c:	24 60       	ori	r18, 0x04	; 4
     80e:	2c 93       	st	X, r18
     810:	a0 ef       	ldi	r26, 0xF0	; 240
     812:	b0 e0       	ldi	r27, 0x00	; 0
     814:	2c 91       	ld	r18, X
     816:	2b 7f       	andi	r18, 0xFB	; 251
     818:	2c 93       	st	X, r18
     81a:	20 81       	ld	r18, Z
     81c:	2f 7e       	andi	r18, 0xEF	; 239
     81e:	20 83       	st	Z, r18
     820:	fc 01       	movw	r30, r24
     822:	20 81       	ld	r18, Z
     824:	2e 7f       	andi	r18, 0xFE	; 254
     826:	20 83       	st	Z, r18
     828:	db 01       	movw	r26, r22
     82a:	8c 91       	ld	r24, X
     82c:	8f 73       	andi	r24, 0x3F	; 63
     82e:	8c 93       	st	X, r24
     830:	8c 91       	ld	r24, X
     832:	80 68       	ori	r24, 0x80	; 128
     834:	8c 93       	st	X, r24
     836:	80 e0       	ldi	r24, 0x00	; 0
     838:	92 c3       	rjmp	.+1828   	; 0xf5e <__stack+0x65f>
     83a:	8f ef       	ldi	r24, 0xFF	; 255
     83c:	89 83       	std	Y+1, r24	; 0x01
     83e:	8a 81       	ldd	r24, Y+2	; 0x02
     840:	82 95       	swap	r24
     842:	88 0f       	add	r24, r24
     844:	80 7e       	andi	r24, 0xE0	; 224
     846:	81 5e       	subi	r24, 0xE1	; 225
     848:	27 ef       	ldi	r18, 0xF7	; 247
     84a:	30 e0       	ldi	r19, 0x00	; 0
     84c:	f9 01       	movw	r30, r18
     84e:	80 83       	st	Z, r24
     850:	49 81       	ldd	r20, Y+1	; 0x01
     852:	42 95       	swap	r20
     854:	44 0f       	add	r20, r20
     856:	40 7e       	andi	r20, 0xE0	; 224
     858:	86 ef       	ldi	r24, 0xF6	; 246
     85a:	90 e0       	ldi	r25, 0x00	; 0
     85c:	fc 01       	movw	r30, r24
     85e:	40 83       	st	Z, r20
     860:	12 96       	adiw	r26, 0x02	; 2
     862:	4c 91       	ld	r20, X
     864:	12 97       	sbiw	r26, 0x02	; 2
     866:	46 95       	lsr	r20
     868:	46 95       	lsr	r20
     86a:	46 95       	lsr	r20
     86c:	13 96       	adiw	r26, 0x03	; 3
     86e:	5c 91       	ld	r21, X
     870:	13 97       	sbiw	r26, 0x03	; 3
     872:	f0 e2       	ldi	r31, 0x20	; 32
     874:	5f 9f       	mul	r21, r31
     876:	40 0d       	add	r20, r0
     878:	11 24       	eor	r1, r1
     87a:	40 93 f3 00 	sts	0x00F3, r20
     87e:	12 96       	adiw	r26, 0x02	; 2
     880:	4c 91       	ld	r20, X
     882:	12 97       	sbiw	r26, 0x02	; 2
     884:	42 95       	swap	r20
     886:	44 0f       	add	r20, r20
     888:	40 7e       	andi	r20, 0xE0	; 224
     88a:	40 93 f2 00 	sts	0x00F2, r20
     88e:	6f ee       	ldi	r22, 0xEF	; 239
     890:	70 e0       	ldi	r23, 0x00	; 0
     892:	fb 01       	movw	r30, r22
     894:	40 81       	ld	r20, Z
     896:	4f 7e       	andi	r20, 0xEF	; 239
     898:	40 83       	st	Z, r20
     89a:	19 82       	std	Y+1, r1	; 0x01
     89c:	5b 81       	ldd	r21, Y+3	; 0x03
     89e:	52 95       	swap	r21
     8a0:	56 95       	lsr	r21
     8a2:	57 70       	andi	r21, 0x07	; 7
     8a4:	4c 81       	ldd	r20, Y+4	; 0x04
     8a6:	44 0f       	add	r20, r20
     8a8:	44 0f       	add	r20, r20
     8aa:	44 0f       	add	r20, r20
     8ac:	45 0f       	add	r20, r21
     8ae:	f9 01       	movw	r30, r18
     8b0:	40 83       	st	Z, r20
     8b2:	3a 81       	ldd	r19, Y+2	; 0x02
     8b4:	32 95       	swap	r19
     8b6:	36 95       	lsr	r19
     8b8:	37 70       	andi	r19, 0x07	; 7
     8ba:	2b 81       	ldd	r18, Y+3	; 0x03
     8bc:	22 0f       	add	r18, r18
     8be:	22 0f       	add	r18, r18
     8c0:	22 0f       	add	r18, r18
     8c2:	23 0f       	add	r18, r19
     8c4:	fc 01       	movw	r30, r24
     8c6:	20 83       	st	Z, r18
     8c8:	99 81       	ldd	r25, Y+1	; 0x01
     8ca:	92 95       	swap	r25
     8cc:	96 95       	lsr	r25
     8ce:	97 70       	andi	r25, 0x07	; 7
     8d0:	8a 81       	ldd	r24, Y+2	; 0x02
     8d2:	88 0f       	add	r24, r24
     8d4:	88 0f       	add	r24, r24
     8d6:	88 0f       	add	r24, r24
     8d8:	89 0f       	add	r24, r25
     8da:	80 93 f5 00 	sts	0x00F5, r24
     8de:	29 81       	ldd	r18, Y+1	; 0x01
     8e0:	22 0f       	add	r18, r18
     8e2:	22 0f       	add	r18, r18
     8e4:	22 0f       	add	r18, r18
     8e6:	84 ef       	ldi	r24, 0xF4	; 244
     8e8:	90 e0       	ldi	r25, 0x00	; 0
     8ea:	fc 01       	movw	r30, r24
     8ec:	20 83       	st	Z, r18
     8ee:	fb 01       	movw	r30, r22
     8f0:	30 81       	ld	r19, Z
     8f2:	16 96       	adiw	r26, 0x06	; 6
     8f4:	2c 91       	ld	r18, X
     8f6:	16 97       	sbiw	r26, 0x06	; 6
     8f8:	23 2b       	or	r18, r19
     8fa:	20 83       	st	Z, r18
     8fc:	21 e0       	ldi	r18, 0x01	; 1
     8fe:	1a 96       	adiw	r26, 0x0a	; 10
     900:	2c 93       	st	X, r18
     902:	dc 01       	movw	r26, r24
     904:	2c 91       	ld	r18, X
     906:	24 60       	ori	r18, 0x04	; 4
     908:	2c 93       	st	X, r18
     90a:	a0 ef       	ldi	r26, 0xF0	; 240
     90c:	b0 e0       	ldi	r27, 0x00	; 0
     90e:	2c 91       	ld	r18, X
     910:	24 60       	ori	r18, 0x04	; 4
     912:	2c 93       	st	X, r18
     914:	20 81       	ld	r18, Z
     916:	2f 7d       	andi	r18, 0xDF	; 223
     918:	20 83       	st	Z, r18
     91a:	fc 01       	movw	r30, r24
     91c:	20 81       	ld	r18, Z
     91e:	2e 7f       	andi	r18, 0xFE	; 254
     920:	20 83       	st	Z, r18
     922:	db 01       	movw	r26, r22
     924:	8c 91       	ld	r24, X
     926:	8f 73       	andi	r24, 0x3F	; 63
     928:	8c 93       	st	X, r24
     92a:	8c 91       	ld	r24, X
     92c:	80 68       	ori	r24, 0x80	; 128
     92e:	8c 93       	st	X, r24
     930:	80 e0       	ldi	r24, 0x00	; 0
     932:	15 c3       	rjmp	.+1578   	; 0xf5e <__stack+0x65f>
     934:	1b 96       	adiw	r26, 0x0b	; 11
     936:	8c 91       	ld	r24, X
     938:	1b 97       	sbiw	r26, 0x0b	; 11
     93a:	88 23       	and	r24, r24
     93c:	d9 f1       	breq	.+118    	; 0x9b4 <__stack+0xb5>
     93e:	14 96       	adiw	r26, 0x04	; 4
     940:	9c 91       	ld	r25, X
     942:	14 97       	sbiw	r26, 0x04	; 4
     944:	92 95       	swap	r25
     946:	96 95       	lsr	r25
     948:	97 70       	andi	r25, 0x07	; 7
     94a:	15 96       	adiw	r26, 0x05	; 5
     94c:	8c 91       	ld	r24, X
     94e:	15 97       	sbiw	r26, 0x05	; 5
     950:	88 0f       	add	r24, r24
     952:	88 0f       	add	r24, r24
     954:	88 0f       	add	r24, r24
     956:	89 0f       	add	r24, r25
     958:	80 93 f3 00 	sts	0x00F3, r24
     95c:	13 96       	adiw	r26, 0x03	; 3
     95e:	9c 91       	ld	r25, X
     960:	13 97       	sbiw	r26, 0x03	; 3
     962:	92 95       	swap	r25
     964:	96 95       	lsr	r25
     966:	97 70       	andi	r25, 0x07	; 7
     968:	14 96       	adiw	r26, 0x04	; 4
     96a:	8c 91       	ld	r24, X
     96c:	14 97       	sbiw	r26, 0x04	; 4
     96e:	88 0f       	add	r24, r24
     970:	88 0f       	add	r24, r24
     972:	88 0f       	add	r24, r24
     974:	89 0f       	add	r24, r25
     976:	80 93 f2 00 	sts	0x00F2, r24
     97a:	12 96       	adiw	r26, 0x02	; 2
     97c:	9c 91       	ld	r25, X
     97e:	12 97       	sbiw	r26, 0x02	; 2
     980:	92 95       	swap	r25
     982:	96 95       	lsr	r25
     984:	97 70       	andi	r25, 0x07	; 7
     986:	13 96       	adiw	r26, 0x03	; 3
     988:	8c 91       	ld	r24, X
     98a:	13 97       	sbiw	r26, 0x03	; 3
     98c:	88 0f       	add	r24, r24
     98e:	88 0f       	add	r24, r24
     990:	88 0f       	add	r24, r24
     992:	89 0f       	add	r24, r25
     994:	80 93 f1 00 	sts	0x00F1, r24
     998:	12 96       	adiw	r26, 0x02	; 2
     99a:	8c 91       	ld	r24, X
     99c:	12 97       	sbiw	r26, 0x02	; 2
     99e:	88 0f       	add	r24, r24
     9a0:	88 0f       	add	r24, r24
     9a2:	88 0f       	add	r24, r24
     9a4:	80 93 f0 00 	sts	0x00F0, r24
     9a8:	ef ee       	ldi	r30, 0xEF	; 239
     9aa:	f0 e0       	ldi	r31, 0x00	; 0
     9ac:	80 81       	ld	r24, Z
     9ae:	80 61       	ori	r24, 0x10	; 16
     9b0:	80 83       	st	Z, r24
     9b2:	1c c0       	rjmp	.+56     	; 0x9ec <__stack+0xed>
     9b4:	12 96       	adiw	r26, 0x02	; 2
     9b6:	8c 91       	ld	r24, X
     9b8:	12 97       	sbiw	r26, 0x02	; 2
     9ba:	86 95       	lsr	r24
     9bc:	86 95       	lsr	r24
     9be:	86 95       	lsr	r24
     9c0:	13 96       	adiw	r26, 0x03	; 3
     9c2:	9c 91       	ld	r25, X
     9c4:	13 97       	sbiw	r26, 0x03	; 3
     9c6:	e0 e2       	ldi	r30, 0x20	; 32
     9c8:	9e 9f       	mul	r25, r30
     9ca:	80 0d       	add	r24, r0
     9cc:	11 24       	eor	r1, r1
     9ce:	80 93 f3 00 	sts	0x00F3, r24
     9d2:	12 96       	adiw	r26, 0x02	; 2
     9d4:	8c 91       	ld	r24, X
     9d6:	12 97       	sbiw	r26, 0x02	; 2
     9d8:	82 95       	swap	r24
     9da:	88 0f       	add	r24, r24
     9dc:	80 7e       	andi	r24, 0xE0	; 224
     9de:	80 93 f2 00 	sts	0x00F2, r24
     9e2:	ef ee       	ldi	r30, 0xEF	; 239
     9e4:	f0 e0       	ldi	r31, 0x00	; 0
     9e6:	80 81       	ld	r24, Z
     9e8:	8f 7e       	andi	r24, 0xEF	; 239
     9ea:	80 83       	st	Z, r24
     9ec:	8f ef       	ldi	r24, 0xFF	; 255
     9ee:	89 83       	std	Y+1, r24	; 0x01
     9f0:	9b 81       	ldd	r25, Y+3	; 0x03
     9f2:	92 95       	swap	r25
     9f4:	96 95       	lsr	r25
     9f6:	97 70       	andi	r25, 0x07	; 7
     9f8:	8c 81       	ldd	r24, Y+4	; 0x04
     9fa:	88 0f       	add	r24, r24
     9fc:	88 0f       	add	r24, r24
     9fe:	88 0f       	add	r24, r24
     a00:	89 0f       	add	r24, r25
     a02:	80 93 f7 00 	sts	0x00F7, r24
     a06:	9a 81       	ldd	r25, Y+2	; 0x02
     a08:	92 95       	swap	r25
     a0a:	96 95       	lsr	r25
     a0c:	97 70       	andi	r25, 0x07	; 7
     a0e:	8b 81       	ldd	r24, Y+3	; 0x03
     a10:	88 0f       	add	r24, r24
     a12:	88 0f       	add	r24, r24
     a14:	88 0f       	add	r24, r24
     a16:	89 0f       	add	r24, r25
     a18:	80 93 f6 00 	sts	0x00F6, r24
     a1c:	99 81       	ldd	r25, Y+1	; 0x01
     a1e:	92 95       	swap	r25
     a20:	96 95       	lsr	r25
     a22:	97 70       	andi	r25, 0x07	; 7
     a24:	8a 81       	ldd	r24, Y+2	; 0x02
     a26:	88 0f       	add	r24, r24
     a28:	88 0f       	add	r24, r24
     a2a:	88 0f       	add	r24, r24
     a2c:	89 0f       	add	r24, r25
     a2e:	80 93 f5 00 	sts	0x00F5, r24
     a32:	29 81       	ldd	r18, Y+1	; 0x01
     a34:	22 0f       	add	r18, r18
     a36:	22 0f       	add	r18, r18
     a38:	22 0f       	add	r18, r18
     a3a:	84 ef       	ldi	r24, 0xF4	; 244
     a3c:	90 e0       	ldi	r25, 0x00	; 0
     a3e:	fc 01       	movw	r30, r24
     a40:	20 83       	st	Z, r18
     a42:	ef ee       	ldi	r30, 0xEF	; 239
     a44:	f0 e0       	ldi	r31, 0x00	; 0
     a46:	30 81       	ld	r19, Z
     a48:	16 96       	adiw	r26, 0x06	; 6
     a4a:	2c 91       	ld	r18, X
     a4c:	23 2b       	or	r18, r19
     a4e:	20 83       	st	Z, r18
     a50:	dc 01       	movw	r26, r24
     a52:	2c 91       	ld	r18, X
     a54:	2b 7f       	andi	r18, 0xFB	; 251
     a56:	2c 93       	st	X, r18
     a58:	2c 91       	ld	r18, X
     a5a:	21 60       	ori	r18, 0x01	; 1
     a5c:	2c 93       	st	X, r18
     a5e:	80 81       	ld	r24, Z
     a60:	8f 73       	andi	r24, 0x3F	; 63
     a62:	80 83       	st	Z, r24
     a64:	80 81       	ld	r24, Z
     a66:	80 68       	ori	r24, 0x80	; 128
     a68:	80 83       	st	Z, r24
     a6a:	80 e0       	ldi	r24, 0x00	; 0
     a6c:	78 c2       	rjmp	.+1264   	; 0xf5e <__stack+0x65f>
     a6e:	1b 96       	adiw	r26, 0x0b	; 11
     a70:	8c 91       	ld	r24, X
     a72:	1b 97       	sbiw	r26, 0x0b	; 11
     a74:	88 23       	and	r24, r24
     a76:	d9 f1       	breq	.+118    	; 0xaee <__stack+0x1ef>
     a78:	14 96       	adiw	r26, 0x04	; 4
     a7a:	9c 91       	ld	r25, X
     a7c:	14 97       	sbiw	r26, 0x04	; 4
     a7e:	92 95       	swap	r25
     a80:	96 95       	lsr	r25
     a82:	97 70       	andi	r25, 0x07	; 7
     a84:	15 96       	adiw	r26, 0x05	; 5
     a86:	8c 91       	ld	r24, X
     a88:	15 97       	sbiw	r26, 0x05	; 5
     a8a:	88 0f       	add	r24, r24
     a8c:	88 0f       	add	r24, r24
     a8e:	88 0f       	add	r24, r24
     a90:	89 0f       	add	r24, r25
     a92:	80 93 f3 00 	sts	0x00F3, r24
     a96:	13 96       	adiw	r26, 0x03	; 3
     a98:	9c 91       	ld	r25, X
     a9a:	13 97       	sbiw	r26, 0x03	; 3
     a9c:	92 95       	swap	r25
     a9e:	96 95       	lsr	r25
     aa0:	97 70       	andi	r25, 0x07	; 7
     aa2:	14 96       	adiw	r26, 0x04	; 4
     aa4:	8c 91       	ld	r24, X
     aa6:	14 97       	sbiw	r26, 0x04	; 4
     aa8:	88 0f       	add	r24, r24
     aaa:	88 0f       	add	r24, r24
     aac:	88 0f       	add	r24, r24
     aae:	89 0f       	add	r24, r25
     ab0:	80 93 f2 00 	sts	0x00F2, r24
     ab4:	12 96       	adiw	r26, 0x02	; 2
     ab6:	9c 91       	ld	r25, X
     ab8:	12 97       	sbiw	r26, 0x02	; 2
     aba:	92 95       	swap	r25
     abc:	96 95       	lsr	r25
     abe:	97 70       	andi	r25, 0x07	; 7
     ac0:	13 96       	adiw	r26, 0x03	; 3
     ac2:	8c 91       	ld	r24, X
     ac4:	13 97       	sbiw	r26, 0x03	; 3
     ac6:	88 0f       	add	r24, r24
     ac8:	88 0f       	add	r24, r24
     aca:	88 0f       	add	r24, r24
     acc:	89 0f       	add	r24, r25
     ace:	80 93 f1 00 	sts	0x00F1, r24
     ad2:	12 96       	adiw	r26, 0x02	; 2
     ad4:	8c 91       	ld	r24, X
     ad6:	12 97       	sbiw	r26, 0x02	; 2
     ad8:	88 0f       	add	r24, r24
     ada:	88 0f       	add	r24, r24
     adc:	88 0f       	add	r24, r24
     ade:	80 93 f0 00 	sts	0x00F0, r24
     ae2:	ef ee       	ldi	r30, 0xEF	; 239
     ae4:	f0 e0       	ldi	r31, 0x00	; 0
     ae6:	80 81       	ld	r24, Z
     ae8:	80 61       	ori	r24, 0x10	; 16
     aea:	80 83       	st	Z, r24
     aec:	1c c0       	rjmp	.+56     	; 0xb26 <__stack+0x227>
     aee:	12 96       	adiw	r26, 0x02	; 2
     af0:	8c 91       	ld	r24, X
     af2:	12 97       	sbiw	r26, 0x02	; 2
     af4:	86 95       	lsr	r24
     af6:	86 95       	lsr	r24
     af8:	86 95       	lsr	r24
     afa:	13 96       	adiw	r26, 0x03	; 3
     afc:	9c 91       	ld	r25, X
     afe:	13 97       	sbiw	r26, 0x03	; 3
     b00:	e0 e2       	ldi	r30, 0x20	; 32
     b02:	9e 9f       	mul	r25, r30
     b04:	80 0d       	add	r24, r0
     b06:	11 24       	eor	r1, r1
     b08:	80 93 f3 00 	sts	0x00F3, r24
     b0c:	12 96       	adiw	r26, 0x02	; 2
     b0e:	8c 91       	ld	r24, X
     b10:	12 97       	sbiw	r26, 0x02	; 2
     b12:	82 95       	swap	r24
     b14:	88 0f       	add	r24, r24
     b16:	80 7e       	andi	r24, 0xE0	; 224
     b18:	80 93 f2 00 	sts	0x00F2, r24
     b1c:	ef ee       	ldi	r30, 0xEF	; 239
     b1e:	f0 e0       	ldi	r31, 0x00	; 0
     b20:	80 81       	ld	r24, Z
     b22:	8f 7e       	andi	r24, 0xEF	; 239
     b24:	80 83       	st	Z, r24
     b26:	8f ef       	ldi	r24, 0xFF	; 255
     b28:	89 83       	std	Y+1, r24	; 0x01
     b2a:	9b 81       	ldd	r25, Y+3	; 0x03
     b2c:	92 95       	swap	r25
     b2e:	96 95       	lsr	r25
     b30:	97 70       	andi	r25, 0x07	; 7
     b32:	8c 81       	ldd	r24, Y+4	; 0x04
     b34:	88 0f       	add	r24, r24
     b36:	88 0f       	add	r24, r24
     b38:	88 0f       	add	r24, r24
     b3a:	89 0f       	add	r24, r25
     b3c:	80 93 f7 00 	sts	0x00F7, r24
     b40:	9a 81       	ldd	r25, Y+2	; 0x02
     b42:	92 95       	swap	r25
     b44:	96 95       	lsr	r25
     b46:	97 70       	andi	r25, 0x07	; 7
     b48:	8b 81       	ldd	r24, Y+3	; 0x03
     b4a:	88 0f       	add	r24, r24
     b4c:	88 0f       	add	r24, r24
     b4e:	88 0f       	add	r24, r24
     b50:	89 0f       	add	r24, r25
     b52:	80 93 f6 00 	sts	0x00F6, r24
     b56:	99 81       	ldd	r25, Y+1	; 0x01
     b58:	92 95       	swap	r25
     b5a:	96 95       	lsr	r25
     b5c:	97 70       	andi	r25, 0x07	; 7
     b5e:	8a 81       	ldd	r24, Y+2	; 0x02
     b60:	88 0f       	add	r24, r24
     b62:	88 0f       	add	r24, r24
     b64:	88 0f       	add	r24, r24
     b66:	89 0f       	add	r24, r25
     b68:	80 93 f5 00 	sts	0x00F5, r24
     b6c:	29 81       	ldd	r18, Y+1	; 0x01
     b6e:	22 0f       	add	r18, r18
     b70:	22 0f       	add	r18, r18
     b72:	22 0f       	add	r18, r18
     b74:	84 ef       	ldi	r24, 0xF4	; 244
     b76:	90 e0       	ldi	r25, 0x00	; 0
     b78:	fc 01       	movw	r30, r24
     b7a:	20 83       	st	Z, r18
     b7c:	ef ee       	ldi	r30, 0xEF	; 239
     b7e:	f0 e0       	ldi	r31, 0x00	; 0
     b80:	30 81       	ld	r19, Z
     b82:	16 96       	adiw	r26, 0x06	; 6
     b84:	2c 91       	ld	r18, X
     b86:	16 97       	sbiw	r26, 0x06	; 6
     b88:	23 2b       	or	r18, r19
     b8a:	20 83       	st	Z, r18
     b8c:	1a 96       	adiw	r26, 0x0a	; 10
     b8e:	1c 92       	st	X, r1
     b90:	dc 01       	movw	r26, r24
     b92:	2c 91       	ld	r18, X
     b94:	24 60       	ori	r18, 0x04	; 4
     b96:	2c 93       	st	X, r18
     b98:	a0 ef       	ldi	r26, 0xF0	; 240
     b9a:	b0 e0       	ldi	r27, 0x00	; 0
     b9c:	2c 91       	ld	r18, X
     b9e:	2b 7f       	andi	r18, 0xFB	; 251
     ba0:	2c 93       	st	X, r18
     ba2:	dc 01       	movw	r26, r24
     ba4:	2c 91       	ld	r18, X
     ba6:	21 60       	ori	r18, 0x01	; 1
     ba8:	2c 93       	st	X, r18
     baa:	80 81       	ld	r24, Z
     bac:	8f 73       	andi	r24, 0x3F	; 63
     bae:	80 83       	st	Z, r24
     bb0:	80 81       	ld	r24, Z
     bb2:	80 68       	ori	r24, 0x80	; 128
     bb4:	80 83       	st	Z, r24
     bb6:	80 e0       	ldi	r24, 0x00	; 0
     bb8:	d2 c1       	rjmp	.+932    	; 0xf5e <__stack+0x65f>
     bba:	1b 96       	adiw	r26, 0x0b	; 11
     bbc:	8c 91       	ld	r24, X
     bbe:	1b 97       	sbiw	r26, 0x0b	; 11
     bc0:	88 23       	and	r24, r24
     bc2:	d9 f1       	breq	.+118    	; 0xc3a <__stack+0x33b>
     bc4:	14 96       	adiw	r26, 0x04	; 4
     bc6:	9c 91       	ld	r25, X
     bc8:	14 97       	sbiw	r26, 0x04	; 4
     bca:	92 95       	swap	r25
     bcc:	96 95       	lsr	r25
     bce:	97 70       	andi	r25, 0x07	; 7
     bd0:	15 96       	adiw	r26, 0x05	; 5
     bd2:	8c 91       	ld	r24, X
     bd4:	15 97       	sbiw	r26, 0x05	; 5
     bd6:	88 0f       	add	r24, r24
     bd8:	88 0f       	add	r24, r24
     bda:	88 0f       	add	r24, r24
     bdc:	89 0f       	add	r24, r25
     bde:	80 93 f3 00 	sts	0x00F3, r24
     be2:	13 96       	adiw	r26, 0x03	; 3
     be4:	9c 91       	ld	r25, X
     be6:	13 97       	sbiw	r26, 0x03	; 3
     be8:	92 95       	swap	r25
     bea:	96 95       	lsr	r25
     bec:	97 70       	andi	r25, 0x07	; 7
     bee:	14 96       	adiw	r26, 0x04	; 4
     bf0:	8c 91       	ld	r24, X
     bf2:	14 97       	sbiw	r26, 0x04	; 4
     bf4:	88 0f       	add	r24, r24
     bf6:	88 0f       	add	r24, r24
     bf8:	88 0f       	add	r24, r24
     bfa:	89 0f       	add	r24, r25
     bfc:	80 93 f2 00 	sts	0x00F2, r24
     c00:	12 96       	adiw	r26, 0x02	; 2
     c02:	9c 91       	ld	r25, X
     c04:	12 97       	sbiw	r26, 0x02	; 2
     c06:	92 95       	swap	r25
     c08:	96 95       	lsr	r25
     c0a:	97 70       	andi	r25, 0x07	; 7
     c0c:	13 96       	adiw	r26, 0x03	; 3
     c0e:	8c 91       	ld	r24, X
     c10:	13 97       	sbiw	r26, 0x03	; 3
     c12:	88 0f       	add	r24, r24
     c14:	88 0f       	add	r24, r24
     c16:	88 0f       	add	r24, r24
     c18:	89 0f       	add	r24, r25
     c1a:	80 93 f1 00 	sts	0x00F1, r24
     c1e:	12 96       	adiw	r26, 0x02	; 2
     c20:	8c 91       	ld	r24, X
     c22:	12 97       	sbiw	r26, 0x02	; 2
     c24:	88 0f       	add	r24, r24
     c26:	88 0f       	add	r24, r24
     c28:	88 0f       	add	r24, r24
     c2a:	80 93 f0 00 	sts	0x00F0, r24
     c2e:	ef ee       	ldi	r30, 0xEF	; 239
     c30:	f0 e0       	ldi	r31, 0x00	; 0
     c32:	80 81       	ld	r24, Z
     c34:	80 61       	ori	r24, 0x10	; 16
     c36:	80 83       	st	Z, r24
     c38:	1c c0       	rjmp	.+56     	; 0xc72 <__stack+0x373>
     c3a:	12 96       	adiw	r26, 0x02	; 2
     c3c:	8c 91       	ld	r24, X
     c3e:	12 97       	sbiw	r26, 0x02	; 2
     c40:	86 95       	lsr	r24
     c42:	86 95       	lsr	r24
     c44:	86 95       	lsr	r24
     c46:	13 96       	adiw	r26, 0x03	; 3
     c48:	9c 91       	ld	r25, X
     c4a:	13 97       	sbiw	r26, 0x03	; 3
     c4c:	e0 e2       	ldi	r30, 0x20	; 32
     c4e:	9e 9f       	mul	r25, r30
     c50:	80 0d       	add	r24, r0
     c52:	11 24       	eor	r1, r1
     c54:	80 93 f3 00 	sts	0x00F3, r24
     c58:	12 96       	adiw	r26, 0x02	; 2
     c5a:	8c 91       	ld	r24, X
     c5c:	12 97       	sbiw	r26, 0x02	; 2
     c5e:	82 95       	swap	r24
     c60:	88 0f       	add	r24, r24
     c62:	80 7e       	andi	r24, 0xE0	; 224
     c64:	80 93 f2 00 	sts	0x00F2, r24
     c68:	ef ee       	ldi	r30, 0xEF	; 239
     c6a:	f0 e0       	ldi	r31, 0x00	; 0
     c6c:	80 81       	ld	r24, Z
     c6e:	8f 7e       	andi	r24, 0xEF	; 239
     c70:	80 83       	st	Z, r24
     c72:	8f ef       	ldi	r24, 0xFF	; 255
     c74:	89 83       	std	Y+1, r24	; 0x01
     c76:	9b 81       	ldd	r25, Y+3	; 0x03
     c78:	92 95       	swap	r25
     c7a:	96 95       	lsr	r25
     c7c:	97 70       	andi	r25, 0x07	; 7
     c7e:	8c 81       	ldd	r24, Y+4	; 0x04
     c80:	88 0f       	add	r24, r24
     c82:	88 0f       	add	r24, r24
     c84:	88 0f       	add	r24, r24
     c86:	89 0f       	add	r24, r25
     c88:	80 93 f7 00 	sts	0x00F7, r24
     c8c:	9a 81       	ldd	r25, Y+2	; 0x02
     c8e:	92 95       	swap	r25
     c90:	96 95       	lsr	r25
     c92:	97 70       	andi	r25, 0x07	; 7
     c94:	8b 81       	ldd	r24, Y+3	; 0x03
     c96:	88 0f       	add	r24, r24
     c98:	88 0f       	add	r24, r24
     c9a:	88 0f       	add	r24, r24
     c9c:	89 0f       	add	r24, r25
     c9e:	80 93 f6 00 	sts	0x00F6, r24
     ca2:	99 81       	ldd	r25, Y+1	; 0x01
     ca4:	92 95       	swap	r25
     ca6:	96 95       	lsr	r25
     ca8:	97 70       	andi	r25, 0x07	; 7
     caa:	8a 81       	ldd	r24, Y+2	; 0x02
     cac:	88 0f       	add	r24, r24
     cae:	88 0f       	add	r24, r24
     cb0:	88 0f       	add	r24, r24
     cb2:	89 0f       	add	r24, r25
     cb4:	80 93 f5 00 	sts	0x00F5, r24
     cb8:	29 81       	ldd	r18, Y+1	; 0x01
     cba:	22 0f       	add	r18, r18
     cbc:	22 0f       	add	r18, r18
     cbe:	22 0f       	add	r18, r18
     cc0:	84 ef       	ldi	r24, 0xF4	; 244
     cc2:	90 e0       	ldi	r25, 0x00	; 0
     cc4:	fc 01       	movw	r30, r24
     cc6:	20 83       	st	Z, r18
     cc8:	ef ee       	ldi	r30, 0xEF	; 239
     cca:	f0 e0       	ldi	r31, 0x00	; 0
     ccc:	30 81       	ld	r19, Z
     cce:	16 96       	adiw	r26, 0x06	; 6
     cd0:	2c 91       	ld	r18, X
     cd2:	16 97       	sbiw	r26, 0x06	; 6
     cd4:	23 2b       	or	r18, r19
     cd6:	20 83       	st	Z, r18
     cd8:	21 e0       	ldi	r18, 0x01	; 1
     cda:	1a 96       	adiw	r26, 0x0a	; 10
     cdc:	2c 93       	st	X, r18
     cde:	dc 01       	movw	r26, r24
     ce0:	2c 91       	ld	r18, X
     ce2:	24 60       	ori	r18, 0x04	; 4
     ce4:	2c 93       	st	X, r18
     ce6:	a0 ef       	ldi	r26, 0xF0	; 240
     ce8:	b0 e0       	ldi	r27, 0x00	; 0
     cea:	2c 91       	ld	r18, X
     cec:	24 60       	ori	r18, 0x04	; 4
     cee:	2c 93       	st	X, r18
     cf0:	20 81       	ld	r18, Z
     cf2:	2f 7d       	andi	r18, 0xDF	; 223
     cf4:	20 83       	st	Z, r18
     cf6:	dc 01       	movw	r26, r24
     cf8:	2c 91       	ld	r18, X
     cfa:	21 60       	ori	r18, 0x01	; 1
     cfc:	2c 93       	st	X, r18
     cfe:	80 81       	ld	r24, Z
     d00:	8f 73       	andi	r24, 0x3F	; 63
     d02:	80 83       	st	Z, r24
     d04:	80 81       	ld	r24, Z
     d06:	80 68       	ori	r24, 0x80	; 128
     d08:	80 83       	st	Z, r24
     d0a:	80 e0       	ldi	r24, 0x00	; 0
     d0c:	28 c1       	rjmp	.+592    	; 0xf5e <__stack+0x65f>
     d0e:	20 e0       	ldi	r18, 0x00	; 0
     d10:	8a ef       	ldi	r24, 0xFA	; 250
     d12:	90 e0       	ldi	r25, 0x00	; 0
     d14:	17 96       	adiw	r26, 0x07	; 7
     d16:	ed 91       	ld	r30, X+
     d18:	fc 91       	ld	r31, X
     d1a:	18 97       	sbiw	r26, 0x08	; 8
     d1c:	e2 0f       	add	r30, r18
     d1e:	f1 1d       	adc	r31, r1
     d20:	30 81       	ld	r19, Z
     d22:	fc 01       	movw	r30, r24
     d24:	30 83       	st	Z, r19
     d26:	2f 5f       	subi	r18, 0xFF	; 255
     d28:	16 96       	adiw	r26, 0x06	; 6
     d2a:	3c 91       	ld	r19, X
     d2c:	16 97       	sbiw	r26, 0x06	; 6
     d2e:	23 17       	cp	r18, r19
     d30:	88 f3       	brcs	.-30     	; 0xd14 <__stack+0x415>
     d32:	19 82       	std	Y+1, r1	; 0x01
     d34:	9b 81       	ldd	r25, Y+3	; 0x03
     d36:	92 95       	swap	r25
     d38:	96 95       	lsr	r25
     d3a:	97 70       	andi	r25, 0x07	; 7
     d3c:	8c 81       	ldd	r24, Y+4	; 0x04
     d3e:	88 0f       	add	r24, r24
     d40:	88 0f       	add	r24, r24
     d42:	88 0f       	add	r24, r24
     d44:	89 0f       	add	r24, r25
     d46:	80 93 f7 00 	sts	0x00F7, r24
     d4a:	9a 81       	ldd	r25, Y+2	; 0x02
     d4c:	92 95       	swap	r25
     d4e:	96 95       	lsr	r25
     d50:	97 70       	andi	r25, 0x07	; 7
     d52:	8b 81       	ldd	r24, Y+3	; 0x03
     d54:	88 0f       	add	r24, r24
     d56:	88 0f       	add	r24, r24
     d58:	88 0f       	add	r24, r24
     d5a:	89 0f       	add	r24, r25
     d5c:	80 93 f6 00 	sts	0x00F6, r24
     d60:	99 81       	ldd	r25, Y+1	; 0x01
     d62:	92 95       	swap	r25
     d64:	96 95       	lsr	r25
     d66:	97 70       	andi	r25, 0x07	; 7
     d68:	8a 81       	ldd	r24, Y+2	; 0x02
     d6a:	88 0f       	add	r24, r24
     d6c:	88 0f       	add	r24, r24
     d6e:	88 0f       	add	r24, r24
     d70:	89 0f       	add	r24, r25
     d72:	80 93 f5 00 	sts	0x00F5, r24
     d76:	29 81       	ldd	r18, Y+1	; 0x01
     d78:	22 0f       	add	r18, r18
     d7a:	22 0f       	add	r18, r18
     d7c:	22 0f       	add	r18, r18
     d7e:	84 ef       	ldi	r24, 0xF4	; 244
     d80:	90 e0       	ldi	r25, 0x00	; 0
     d82:	fc 01       	movw	r30, r24
     d84:	20 83       	st	Z, r18
     d86:	ef ee       	ldi	r30, 0xEF	; 239
     d88:	f0 e0       	ldi	r31, 0x00	; 0
     d8a:	30 81       	ld	r19, Z
     d8c:	16 96       	adiw	r26, 0x06	; 6
     d8e:	2c 91       	ld	r18, X
     d90:	16 97       	sbiw	r26, 0x06	; 6
     d92:	23 2b       	or	r18, r19
     d94:	20 83       	st	Z, r18
     d96:	21 e0       	ldi	r18, 0x01	; 1
     d98:	1a 96       	adiw	r26, 0x0a	; 10
     d9a:	2c 93       	st	X, r18
     d9c:	dc 01       	movw	r26, r24
     d9e:	2c 91       	ld	r18, X
     da0:	24 60       	ori	r18, 0x04	; 4
     da2:	2c 93       	st	X, r18
     da4:	a0 ef       	ldi	r26, 0xF0	; 240
     da6:	b0 e0       	ldi	r27, 0x00	; 0
     da8:	2c 91       	ld	r18, X
     daa:	24 60       	ori	r18, 0x04	; 4
     dac:	2c 93       	st	X, r18
     dae:	20 81       	ld	r18, Z
     db0:	20 62       	ori	r18, 0x20	; 32
     db2:	20 83       	st	Z, r18
     db4:	dc 01       	movw	r26, r24
     db6:	2c 91       	ld	r18, X
     db8:	2e 7f       	andi	r18, 0xFE	; 254
     dba:	2c 93       	st	X, r18
     dbc:	80 81       	ld	r24, Z
     dbe:	8f 73       	andi	r24, 0x3F	; 63
     dc0:	80 83       	st	Z, r24
     dc2:	80 81       	ld	r24, Z
     dc4:	80 68       	ori	r24, 0x80	; 128
     dc6:	80 83       	st	Z, r24
     dc8:	80 e0       	ldi	r24, 0x00	; 0
     dca:	c9 c0       	rjmp	.+402    	; 0xf5e <__stack+0x65f>
     dcc:	1b 96       	adiw	r26, 0x0b	; 11
     dce:	8c 91       	ld	r24, X
     dd0:	1b 97       	sbiw	r26, 0x0b	; 11
     dd2:	88 23       	and	r24, r24
     dd4:	d9 f1       	breq	.+118    	; 0xe4c <__stack+0x54d>
     dd6:	14 96       	adiw	r26, 0x04	; 4
     dd8:	9c 91       	ld	r25, X
     dda:	14 97       	sbiw	r26, 0x04	; 4
     ddc:	92 95       	swap	r25
     dde:	96 95       	lsr	r25
     de0:	97 70       	andi	r25, 0x07	; 7
     de2:	15 96       	adiw	r26, 0x05	; 5
     de4:	8c 91       	ld	r24, X
     de6:	15 97       	sbiw	r26, 0x05	; 5
     de8:	88 0f       	add	r24, r24
     dea:	88 0f       	add	r24, r24
     dec:	88 0f       	add	r24, r24
     dee:	89 0f       	add	r24, r25
     df0:	80 93 f3 00 	sts	0x00F3, r24
     df4:	13 96       	adiw	r26, 0x03	; 3
     df6:	9c 91       	ld	r25, X
     df8:	13 97       	sbiw	r26, 0x03	; 3
     dfa:	92 95       	swap	r25
     dfc:	96 95       	lsr	r25
     dfe:	97 70       	andi	r25, 0x07	; 7
     e00:	14 96       	adiw	r26, 0x04	; 4
     e02:	8c 91       	ld	r24, X
     e04:	14 97       	sbiw	r26, 0x04	; 4
     e06:	88 0f       	add	r24, r24
     e08:	88 0f       	add	r24, r24
     e0a:	88 0f       	add	r24, r24
     e0c:	89 0f       	add	r24, r25
     e0e:	80 93 f2 00 	sts	0x00F2, r24
     e12:	12 96       	adiw	r26, 0x02	; 2
     e14:	9c 91       	ld	r25, X
     e16:	12 97       	sbiw	r26, 0x02	; 2
     e18:	92 95       	swap	r25
     e1a:	96 95       	lsr	r25
     e1c:	97 70       	andi	r25, 0x07	; 7
     e1e:	13 96       	adiw	r26, 0x03	; 3
     e20:	8c 91       	ld	r24, X
     e22:	13 97       	sbiw	r26, 0x03	; 3
     e24:	88 0f       	add	r24, r24
     e26:	88 0f       	add	r24, r24
     e28:	88 0f       	add	r24, r24
     e2a:	89 0f       	add	r24, r25
     e2c:	80 93 f1 00 	sts	0x00F1, r24
     e30:	12 96       	adiw	r26, 0x02	; 2
     e32:	8c 91       	ld	r24, X
     e34:	12 97       	sbiw	r26, 0x02	; 2
     e36:	88 0f       	add	r24, r24
     e38:	88 0f       	add	r24, r24
     e3a:	88 0f       	add	r24, r24
     e3c:	80 93 f0 00 	sts	0x00F0, r24
     e40:	ef ee       	ldi	r30, 0xEF	; 239
     e42:	f0 e0       	ldi	r31, 0x00	; 0
     e44:	80 81       	ld	r24, Z
     e46:	80 61       	ori	r24, 0x10	; 16
     e48:	80 83       	st	Z, r24
     e4a:	1c c0       	rjmp	.+56     	; 0xe84 <__stack+0x585>
     e4c:	12 96       	adiw	r26, 0x02	; 2
     e4e:	8c 91       	ld	r24, X
     e50:	12 97       	sbiw	r26, 0x02	; 2
     e52:	86 95       	lsr	r24
     e54:	86 95       	lsr	r24
     e56:	86 95       	lsr	r24
     e58:	13 96       	adiw	r26, 0x03	; 3
     e5a:	9c 91       	ld	r25, X
     e5c:	13 97       	sbiw	r26, 0x03	; 3
     e5e:	e0 e2       	ldi	r30, 0x20	; 32
     e60:	9e 9f       	mul	r25, r30
     e62:	80 0d       	add	r24, r0
     e64:	11 24       	eor	r1, r1
     e66:	80 93 f3 00 	sts	0x00F3, r24
     e6a:	12 96       	adiw	r26, 0x02	; 2
     e6c:	8c 91       	ld	r24, X
     e6e:	12 97       	sbiw	r26, 0x02	; 2
     e70:	82 95       	swap	r24
     e72:	88 0f       	add	r24, r24
     e74:	80 7e       	andi	r24, 0xE0	; 224
     e76:	80 93 f2 00 	sts	0x00F2, r24
     e7a:	ef ee       	ldi	r30, 0xEF	; 239
     e7c:	f0 e0       	ldi	r31, 0x00	; 0
     e7e:	80 81       	ld	r24, Z
     e80:	8f 7e       	andi	r24, 0xEF	; 239
     e82:	80 83       	st	Z, r24
     e84:	16 96       	adiw	r26, 0x06	; 6
     e86:	8c 91       	ld	r24, X
     e88:	16 97       	sbiw	r26, 0x06	; 6
     e8a:	88 23       	and	r24, r24
     e8c:	91 f0       	breq	.+36     	; 0xeb2 <__stack+0x5b3>
     e8e:	20 e0       	ldi	r18, 0x00	; 0
     e90:	8a ef       	ldi	r24, 0xFA	; 250
     e92:	90 e0       	ldi	r25, 0x00	; 0
     e94:	17 96       	adiw	r26, 0x07	; 7
     e96:	ed 91       	ld	r30, X+
     e98:	fc 91       	ld	r31, X
     e9a:	18 97       	sbiw	r26, 0x08	; 8
     e9c:	e2 0f       	add	r30, r18
     e9e:	f1 1d       	adc	r31, r1
     ea0:	30 81       	ld	r19, Z
     ea2:	fc 01       	movw	r30, r24
     ea4:	30 83       	st	Z, r19
     ea6:	2f 5f       	subi	r18, 0xFF	; 255
     ea8:	16 96       	adiw	r26, 0x06	; 6
     eaa:	3c 91       	ld	r19, X
     eac:	16 97       	sbiw	r26, 0x06	; 6
     eae:	23 17       	cp	r18, r19
     eb0:	88 f3       	brcs	.-30     	; 0xe94 <__stack+0x595>
     eb2:	8f ef       	ldi	r24, 0xFF	; 255
     eb4:	89 83       	std	Y+1, r24	; 0x01
     eb6:	9b 81       	ldd	r25, Y+3	; 0x03
     eb8:	92 95       	swap	r25
     eba:	96 95       	lsr	r25
     ebc:	97 70       	andi	r25, 0x07	; 7
     ebe:	8c 81       	ldd	r24, Y+4	; 0x04
     ec0:	88 0f       	add	r24, r24
     ec2:	88 0f       	add	r24, r24
     ec4:	88 0f       	add	r24, r24
     ec6:	89 0f       	add	r24, r25
     ec8:	80 93 f7 00 	sts	0x00F7, r24
     ecc:	9a 81       	ldd	r25, Y+2	; 0x02
     ece:	92 95       	swap	r25
     ed0:	96 95       	lsr	r25
     ed2:	97 70       	andi	r25, 0x07	; 7
     ed4:	8b 81       	ldd	r24, Y+3	; 0x03
     ed6:	88 0f       	add	r24, r24
     ed8:	88 0f       	add	r24, r24
     eda:	88 0f       	add	r24, r24
     edc:	89 0f       	add	r24, r25
     ede:	80 93 f6 00 	sts	0x00F6, r24
     ee2:	99 81       	ldd	r25, Y+1	; 0x01
     ee4:	92 95       	swap	r25
     ee6:	96 95       	lsr	r25
     ee8:	97 70       	andi	r25, 0x07	; 7
     eea:	8a 81       	ldd	r24, Y+2	; 0x02
     eec:	88 0f       	add	r24, r24
     eee:	88 0f       	add	r24, r24
     ef0:	88 0f       	add	r24, r24
     ef2:	89 0f       	add	r24, r25
     ef4:	80 93 f5 00 	sts	0x00F5, r24
     ef8:	29 81       	ldd	r18, Y+1	; 0x01
     efa:	22 0f       	add	r18, r18
     efc:	22 0f       	add	r18, r18
     efe:	22 0f       	add	r18, r18
     f00:	84 ef       	ldi	r24, 0xF4	; 244
     f02:	90 e0       	ldi	r25, 0x00	; 0
     f04:	fc 01       	movw	r30, r24
     f06:	20 83       	st	Z, r18
     f08:	ef ee       	ldi	r30, 0xEF	; 239
     f0a:	f0 e0       	ldi	r31, 0x00	; 0
     f0c:	30 81       	ld	r19, Z
     f0e:	16 96       	adiw	r26, 0x06	; 6
     f10:	2c 91       	ld	r18, X
     f12:	16 97       	sbiw	r26, 0x06	; 6
     f14:	23 2b       	or	r18, r19
     f16:	20 83       	st	Z, r18
     f18:	21 e0       	ldi	r18, 0x01	; 1
     f1a:	1a 96       	adiw	r26, 0x0a	; 10
     f1c:	2c 93       	st	X, r18
     f1e:	dc 01       	movw	r26, r24
     f20:	2c 91       	ld	r18, X
     f22:	24 60       	ori	r18, 0x04	; 4
     f24:	2c 93       	st	X, r18
     f26:	a0 ef       	ldi	r26, 0xF0	; 240
     f28:	b0 e0       	ldi	r27, 0x00	; 0
     f2a:	2c 91       	ld	r18, X
     f2c:	24 60       	ori	r18, 0x04	; 4
     f2e:	2c 93       	st	X, r18
     f30:	20 81       	ld	r18, Z
     f32:	20 62       	ori	r18, 0x20	; 32
     f34:	20 83       	st	Z, r18
     f36:	dc 01       	movw	r26, r24
     f38:	2c 91       	ld	r18, X
     f3a:	21 60       	ori	r18, 0x01	; 1
     f3c:	2c 93       	st	X, r18
     f3e:	80 81       	ld	r24, Z
     f40:	8f 73       	andi	r24, 0x3F	; 63
     f42:	80 83       	st	Z, r24
     f44:	80 81       	ld	r24, Z
     f46:	80 68       	ori	r24, 0x80	; 128
     f48:	80 83       	st	Z, r24
     f4a:	80 e0       	ldi	r24, 0x00	; 0
     f4c:	08 c0       	rjmp	.+16     	; 0xf5e <__stack+0x65f>
     f4e:	19 96       	adiw	r26, 0x09	; 9
     f50:	1c 92       	st	X, r1
     f52:	80 e0       	ldi	r24, 0x00	; 0
     f54:	04 c0       	rjmp	.+8      	; 0xf5e <__stack+0x65f>
     f56:	8f e1       	ldi	r24, 0x1F	; 31
     f58:	19 96       	adiw	r26, 0x09	; 9
     f5a:	8c 93       	st	X, r24
     f5c:	8f ef       	ldi	r24, 0xFF	; 255
     f5e:	0f 90       	pop	r0
     f60:	df 91       	pop	r29
     f62:	cf 91       	pop	r28
     f64:	08 95       	ret

00000f66 <can_get_status>:
     f66:	cf 93       	push	r28
     f68:	df 93       	push	r29
     f6a:	ec 01       	movw	r28, r24
     f6c:	89 85       	ldd	r24, Y+9	; 0x09
     f6e:	88 23       	and	r24, r24
     f70:	09 f4       	brne	.+2      	; 0xf74 <can_get_status+0xe>
     f72:	d8 c0       	rjmp	.+432    	; 0x1124 <can_get_status+0x1be>
     f74:	8f 31       	cpi	r24, 0x1F	; 31
     f76:	09 f4       	brne	.+2      	; 0xf7a <can_get_status+0x14>
     f78:	d7 c0       	rjmp	.+430    	; 0x1128 <can_get_status+0x1c2>
     f7a:	8f 3f       	cpi	r24, 0xFF	; 255
     f7c:	09 f4       	brne	.+2      	; 0xf80 <can_get_status+0x1a>
     f7e:	d6 c0       	rjmp	.+428    	; 0x112c <can_get_status+0x1c6>
     f80:	62 95       	swap	r22
     f82:	60 7f       	andi	r22, 0xF0	; 240
     f84:	60 93 ed 00 	sts	0x00ED, r22
     f88:	0e 94 4a 01 	call	0x294	; 0x294 <can_get_mob_status>
     f8c:	80 32       	cpi	r24, 0x20	; 32
     f8e:	61 f0       	breq	.+24     	; 0xfa8 <can_get_status+0x42>
     f90:	20 f4       	brcc	.+8      	; 0xf9a <can_get_status+0x34>
     f92:	88 23       	and	r24, r24
     f94:	09 f4       	brne	.+2      	; 0xf98 <can_get_status+0x32>
     f96:	cc c0       	rjmp	.+408    	; 0x1130 <can_get_status+0x1ca>
     f98:	bb c0       	rjmp	.+374    	; 0x1110 <can_get_status+0x1aa>
     f9a:	80 34       	cpi	r24, 0x40	; 64
     f9c:	09 f4       	brne	.+2      	; 0xfa0 <can_get_status+0x3a>
     f9e:	ad c0       	rjmp	.+346    	; 0x10fa <can_get_status+0x194>
     fa0:	80 3a       	cpi	r24, 0xA0	; 160
     fa2:	09 f4       	brne	.+2      	; 0xfa6 <can_get_status+0x40>
     fa4:	51 c0       	rjmp	.+162    	; 0x1048 <can_get_status+0xe2>
     fa6:	b4 c0       	rjmp	.+360    	; 0x1110 <can_get_status+0x1aa>
     fa8:	8d e1       	ldi	r24, 0x1D	; 29
     faa:	0e 94 20 0e 	call	0x1c40	; 0x1c40 <PIN_toggle>
     fae:	80 91 f0 00 	lds	r24, 0x00F0
     fb2:	82 fb       	bst	r24, 2
     fb4:	88 27       	eor	r24, r24
     fb6:	80 f9       	bld	r24, 0
     fb8:	8a 87       	std	Y+10, r24	; 0x0a
     fba:	80 91 ef 00 	lds	r24, 0x00EF
     fbe:	84 ff       	sbrs	r24, 4
     fc0:	2d c0       	rjmp	.+90     	; 0x101c <can_get_status+0xb6>
     fc2:	81 e0       	ldi	r24, 0x01	; 1
     fc4:	8b 87       	std	Y+11, r24	; 0x0b
     fc6:	e3 ef       	ldi	r30, 0xF3	; 243
     fc8:	f0 e0       	ldi	r31, 0x00	; 0
     fca:	80 81       	ld	r24, Z
     fcc:	86 95       	lsr	r24
     fce:	86 95       	lsr	r24
     fd0:	86 95       	lsr	r24
     fd2:	8d 83       	std	Y+5, r24	; 0x05
     fd4:	a2 ef       	ldi	r26, 0xF2	; 242
     fd6:	b0 e0       	ldi	r27, 0x00	; 0
     fd8:	8c 91       	ld	r24, X
     fda:	90 81       	ld	r25, Z
     fdc:	86 95       	lsr	r24
     fde:	86 95       	lsr	r24
     fe0:	86 95       	lsr	r24
     fe2:	20 e2       	ldi	r18, 0x20	; 32
     fe4:	92 9f       	mul	r25, r18
     fe6:	80 0d       	add	r24, r0
     fe8:	11 24       	eor	r1, r1
     fea:	8c 83       	std	Y+4, r24	; 0x04
     fec:	e1 ef       	ldi	r30, 0xF1	; 241
     fee:	f0 e0       	ldi	r31, 0x00	; 0
     ff0:	80 81       	ld	r24, Z
     ff2:	9c 91       	ld	r25, X
     ff4:	86 95       	lsr	r24
     ff6:	86 95       	lsr	r24
     ff8:	86 95       	lsr	r24
     ffa:	20 e2       	ldi	r18, 0x20	; 32
     ffc:	92 9f       	mul	r25, r18
     ffe:	80 0d       	add	r24, r0
    1000:	11 24       	eor	r1, r1
    1002:	8b 83       	std	Y+3, r24	; 0x03
    1004:	80 91 f0 00 	lds	r24, 0x00F0
    1008:	90 81       	ld	r25, Z
    100a:	86 95       	lsr	r24
    100c:	86 95       	lsr	r24
    100e:	86 95       	lsr	r24
    1010:	20 e2       	ldi	r18, 0x20	; 32
    1012:	92 9f       	mul	r25, r18
    1014:	80 0d       	add	r24, r0
    1016:	11 24       	eor	r1, r1
    1018:	8a 83       	std	Y+2, r24	; 0x02
    101a:	07 c0       	rjmp	.+14     	; 0x102a <can_get_status+0xc4>
    101c:	1b 86       	std	Y+11, r1	; 0x0b
    101e:	e3 ef       	ldi	r30, 0xF3	; 243
    1020:	f0 e0       	ldi	r31, 0x00	; 0
    1022:	80 81       	ld	r24, Z
    1024:	80 91 f2 00 	lds	r24, 0x00F2
    1028:	80 81       	ld	r24, Z
    102a:	80 e2       	ldi	r24, 0x20	; 32
    102c:	89 87       	std	Y+9, r24	; 0x09
    102e:	8f 81       	ldd	r24, Y+7	; 0x07
    1030:	98 85       	ldd	r25, Y+8	; 0x08
    1032:	0e 94 60 01 	call	0x2c0	; 0x2c0 <can_get_data>
    1036:	ef ee       	ldi	r30, 0xEF	; 239
    1038:	f0 e0       	ldi	r31, 0x00	; 0
    103a:	80 81       	ld	r24, Z
    103c:	8f 73       	andi	r24, 0x3F	; 63
    103e:	80 83       	st	Z, r24
    1040:	10 92 ee 00 	sts	0x00EE, r1
    1044:	80 e2       	ldi	r24, 0x20	; 32
    1046:	75 c0       	rjmp	.+234    	; 0x1132 <can_get_status+0x1cc>
    1048:	80 91 f0 00 	lds	r24, 0x00F0
    104c:	82 fb       	bst	r24, 2
    104e:	88 27       	eor	r24, r24
    1050:	80 f9       	bld	r24, 0
    1052:	8a 87       	std	Y+10, r24	; 0x0a
    1054:	80 91 ef 00 	lds	r24, 0x00EF
    1058:	84 ff       	sbrs	r24, 4
    105a:	2d c0       	rjmp	.+90     	; 0x10b6 <can_get_status+0x150>
    105c:	81 e0       	ldi	r24, 0x01	; 1
    105e:	8b 87       	std	Y+11, r24	; 0x0b
    1060:	e3 ef       	ldi	r30, 0xF3	; 243
    1062:	f0 e0       	ldi	r31, 0x00	; 0
    1064:	80 81       	ld	r24, Z
    1066:	86 95       	lsr	r24
    1068:	86 95       	lsr	r24
    106a:	86 95       	lsr	r24
    106c:	8d 83       	std	Y+5, r24	; 0x05
    106e:	a2 ef       	ldi	r26, 0xF2	; 242
    1070:	b0 e0       	ldi	r27, 0x00	; 0
    1072:	8c 91       	ld	r24, X
    1074:	90 81       	ld	r25, Z
    1076:	86 95       	lsr	r24
    1078:	86 95       	lsr	r24
    107a:	86 95       	lsr	r24
    107c:	20 e2       	ldi	r18, 0x20	; 32
    107e:	92 9f       	mul	r25, r18
    1080:	80 0d       	add	r24, r0
    1082:	11 24       	eor	r1, r1
    1084:	8c 83       	std	Y+4, r24	; 0x04
    1086:	e1 ef       	ldi	r30, 0xF1	; 241
    1088:	f0 e0       	ldi	r31, 0x00	; 0
    108a:	80 81       	ld	r24, Z
    108c:	9c 91       	ld	r25, X
    108e:	86 95       	lsr	r24
    1090:	86 95       	lsr	r24
    1092:	86 95       	lsr	r24
    1094:	20 e2       	ldi	r18, 0x20	; 32
    1096:	92 9f       	mul	r25, r18
    1098:	80 0d       	add	r24, r0
    109a:	11 24       	eor	r1, r1
    109c:	8b 83       	std	Y+3, r24	; 0x03
    109e:	80 91 f0 00 	lds	r24, 0x00F0
    10a2:	90 81       	ld	r25, Z
    10a4:	86 95       	lsr	r24
    10a6:	86 95       	lsr	r24
    10a8:	86 95       	lsr	r24
    10aa:	20 e2       	ldi	r18, 0x20	; 32
    10ac:	92 9f       	mul	r25, r18
    10ae:	80 0d       	add	r24, r0
    10b0:	11 24       	eor	r1, r1
    10b2:	8a 83       	std	Y+2, r24	; 0x02
    10b4:	13 c0       	rjmp	.+38     	; 0x10dc <can_get_status+0x176>
    10b6:	1b 86       	std	Y+11, r1	; 0x0b
    10b8:	e3 ef       	ldi	r30, 0xF3	; 243
    10ba:	f0 e0       	ldi	r31, 0x00	; 0
    10bc:	80 81       	ld	r24, Z
    10be:	82 95       	swap	r24
    10c0:	86 95       	lsr	r24
    10c2:	87 70       	andi	r24, 0x07	; 7
    10c4:	8b 83       	std	Y+3, r24	; 0x03
    10c6:	80 91 f2 00 	lds	r24, 0x00F2
    10ca:	90 81       	ld	r25, Z
    10cc:	99 0f       	add	r25, r25
    10ce:	99 0f       	add	r25, r25
    10d0:	99 0f       	add	r25, r25
    10d2:	82 95       	swap	r24
    10d4:	86 95       	lsr	r24
    10d6:	87 70       	andi	r24, 0x07	; 7
    10d8:	89 0f       	add	r24, r25
    10da:	8a 83       	std	Y+2, r24	; 0x02
    10dc:	80 ea       	ldi	r24, 0xA0	; 160
    10de:	89 87       	std	Y+9, r24	; 0x09
    10e0:	8f 81       	ldd	r24, Y+7	; 0x07
    10e2:	98 85       	ldd	r25, Y+8	; 0x08
    10e4:	0e 94 60 01 	call	0x2c0	; 0x2c0 <can_get_data>
    10e8:	ef ee       	ldi	r30, 0xEF	; 239
    10ea:	f0 e0       	ldi	r31, 0x00	; 0
    10ec:	80 81       	ld	r24, Z
    10ee:	8f 73       	andi	r24, 0x3F	; 63
    10f0:	80 83       	st	Z, r24
    10f2:	10 92 ee 00 	sts	0x00EE, r1
    10f6:	80 ea       	ldi	r24, 0xA0	; 160
    10f8:	1c c0       	rjmp	.+56     	; 0x1132 <can_get_status+0x1cc>
    10fa:	80 e4       	ldi	r24, 0x40	; 64
    10fc:	89 87       	std	Y+9, r24	; 0x09
    10fe:	ef ee       	ldi	r30, 0xEF	; 239
    1100:	f0 e0       	ldi	r31, 0x00	; 0
    1102:	80 81       	ld	r24, Z
    1104:	8f 73       	andi	r24, 0x3F	; 63
    1106:	80 83       	st	Z, r24
    1108:	10 92 ee 00 	sts	0x00EE, r1
    110c:	80 e4       	ldi	r24, 0x40	; 64
    110e:	11 c0       	rjmp	.+34     	; 0x1132 <can_get_status+0x1cc>
    1110:	89 87       	std	Y+9, r24	; 0x09
    1112:	ef ee       	ldi	r30, 0xEF	; 239
    1114:	f0 e0       	ldi	r31, 0x00	; 0
    1116:	80 81       	ld	r24, Z
    1118:	8f 73       	andi	r24, 0x3F	; 63
    111a:	80 83       	st	Z, r24
    111c:	10 92 ee 00 	sts	0x00EE, r1
    1120:	82 e0       	ldi	r24, 0x02	; 2
    1122:	07 c0       	rjmp	.+14     	; 0x1132 <can_get_status+0x1cc>
    1124:	82 e0       	ldi	r24, 0x02	; 2
    1126:	05 c0       	rjmp	.+10     	; 0x1132 <can_get_status+0x1cc>
    1128:	82 e0       	ldi	r24, 0x02	; 2
    112a:	03 c0       	rjmp	.+6      	; 0x1132 <can_get_status+0x1cc>
    112c:	82 e0       	ldi	r24, 0x02	; 2
    112e:	01 c0       	rjmp	.+2      	; 0x1132 <can_get_status+0x1cc>
    1130:	81 e0       	ldi	r24, 0x01	; 1
    1132:	df 91       	pop	r29
    1134:	cf 91       	pop	r28
    1136:	08 95       	ret

00001138 <send_tm_transaction_response>:
    1138:	80 93 cc 01 	sts	0x01CC, r24
    113c:	82 e0       	ldi	r24, 0x02	; 2
    113e:	80 93 cb 01 	sts	0x01CB, r24
    1142:	83 e1       	ldi	r24, 0x13	; 19
    1144:	80 93 ca 01 	sts	0x01CA, r24
    1148:	80 91 07 02 	lds	r24, 0x0207
    114c:	80 93 c9 01 	sts	0x01C9, r24
    1150:	10 92 c8 01 	sts	0x01C8, r1
    1154:	10 92 c7 01 	sts	0x01C7, r1
    1158:	10 92 c6 01 	sts	0x01C6, r1
    115c:	60 93 c5 01 	sts	0x01C5, r22
    1160:	61 e1       	ldi	r22, 0x11	; 17
    1162:	85 ec       	ldi	r24, 0xC5	; 197
    1164:	91 e0       	ldi	r25, 0x01	; 1
    1166:	0e 94 67 00 	call	0xce	; 0xce <can_send_message>
    116a:	08 95       	ret

0000116c <send_response>:
    116c:	83 e0       	ldi	r24, 0x03	; 3
    116e:	80 93 cc 01 	sts	0x01CC, r24
    1172:	82 e0       	ldi	r24, 0x02	; 2
    1174:	80 93 cb 01 	sts	0x01CB, r24
    1178:	84 e0       	ldi	r24, 0x04	; 4
    117a:	80 93 ca 01 	sts	0x01CA, r24
    117e:	80 91 07 02 	lds	r24, 0x0207
    1182:	80 93 c9 01 	sts	0x01C9, r24
    1186:	61 e1       	ldi	r22, 0x11	; 17
    1188:	85 ec       	ldi	r24, 0xC5	; 197
    118a:	91 e0       	ldi	r25, 0x01	; 1
    118c:	0e 94 67 00 	call	0xce	; 0xce <can_send_message>
    1190:	10 92 0b 02 	sts	0x020B, r1
    1194:	08 95       	ret

00001196 <send_housekeeping>:
    1196:	84 e0       	ldi	r24, 0x04	; 4
    1198:	80 93 cc 01 	sts	0x01CC, r24
    119c:	81 e0       	ldi	r24, 0x01	; 1
    119e:	80 93 cb 01 	sts	0x01CB, r24
    11a2:	80 91 07 02 	lds	r24, 0x0207
    11a6:	80 93 c9 01 	sts	0x01C9, r24
    11aa:	6e e0       	ldi	r22, 0x0E	; 14
    11ac:	85 ec       	ldi	r24, 0xC5	; 197
    11ae:	91 e0       	ldi	r25, 0x01	; 1
    11b0:	0e 94 67 00 	call	0xce	; 0xce <can_send_message>
    11b4:	10 92 b1 02 	sts	0x02B1, r1
    11b8:	08 95       	ret

000011ba <send_sensor_data>:
    11ba:	0f 93       	push	r16
    11bc:	1f 93       	push	r17
    11be:	cf 93       	push	r28
    11c0:	df 93       	push	r29
    11c2:	00 d0       	rcall	.+0      	; 0x11c4 <send_sensor_data+0xa>
    11c4:	cd b7       	in	r28, 0x3d	; 61
    11c6:	de b7       	in	r29, 0x3e	; 62
    11c8:	10 91 fc 01 	lds	r17, 0x01FC
    11cc:	00 91 ff 01 	lds	r16, 0x01FF
    11d0:	02 95       	swap	r16
    11d2:	0f 70       	andi	r16, 0x0F	; 15
    11d4:	10 92 c8 01 	sts	0x01C8, r1
    11d8:	10 92 c7 01 	sts	0x01C7, r1
    11dc:	10 92 c6 01 	sts	0x01C6, r1
    11e0:	10 92 c5 01 	sts	0x01C5, r1
    11e4:	1a 30       	cpi	r17, 0x0A	; 10
    11e6:	71 f4       	brne	.+28     	; 0x1204 <send_sensor_data+0x4a>
    11e8:	be 01       	movw	r22, r28
    11ea:	6e 5f       	subi	r22, 0xFE	; 254
    11ec:	7f 4f       	sbci	r23, 0xFF	; 255
    11ee:	ce 01       	movw	r24, r28
    11f0:	01 96       	adiw	r24, 0x01	; 1
    11f2:	0e 94 c6 0e 	call	0x1d8c	; 0x1d8c <spi_retrieve_temp>
    11f6:	89 81       	ldd	r24, Y+1	; 0x01
    11f8:	80 93 c6 01 	sts	0x01C6, r24
    11fc:	8a 81       	ldd	r24, Y+2	; 0x02
    11fe:	80 93 c5 01 	sts	0x01C5, r24
    1202:	0e c0       	rjmp	.+28     	; 0x1220 <send_sensor_data+0x66>
    1204:	11 30       	cpi	r17, 0x01	; 1
    1206:	29 f4       	brne	.+10     	; 0x1212 <send_sensor_data+0x58>
    1208:	80 91 de 02 	lds	r24, 0x02DE
    120c:	80 93 c5 01 	sts	0x01C5, r24
    1210:	0e c0       	rjmp	.+28     	; 0x122e <send_sensor_data+0x74>
    1212:	12 30       	cpi	r17, 0x02	; 2
    1214:	29 f4       	brne	.+10     	; 0x1220 <send_sensor_data+0x66>
    1216:	80 91 df 02 	lds	r24, 0x02DF
    121a:	80 93 c5 01 	sts	0x01C5, r24
    121e:	0d c0       	rjmp	.+26     	; 0x123a <send_sensor_data+0x80>
    1220:	13 30       	cpi	r17, 0x03	; 3
    1222:	29 f4       	brne	.+10     	; 0x122e <send_sensor_data+0x74>
    1224:	80 91 0a 02 	lds	r24, 0x020A
    1228:	80 93 c5 01 	sts	0x01C5, r24
    122c:	06 c0       	rjmp	.+12     	; 0x123a <send_sensor_data+0x80>
    122e:	14 30       	cpi	r17, 0x04	; 4
    1230:	21 f4       	brne	.+8      	; 0x123a <send_sensor_data+0x80>
    1232:	80 91 0a 01 	lds	r24, 0x010A
    1236:	80 93 c5 01 	sts	0x01C5, r24
    123a:	00 93 cc 01 	sts	0x01CC, r16
    123e:	10 92 cb 01 	sts	0x01CB, r1
    1242:	10 93 ca 01 	sts	0x01CA, r17
    1246:	80 91 07 02 	lds	r24, 0x0207
    124a:	80 93 c9 01 	sts	0x01C9, r24
    124e:	6a e0       	ldi	r22, 0x0A	; 10
    1250:	85 ec       	ldi	r24, 0xC5	; 197
    1252:	91 e0       	ldi	r25, 0x01	; 1
    1254:	0e 94 67 00 	call	0xce	; 0xce <can_send_message>
    1258:	10 92 d3 02 	sts	0x02D3, r1
    125c:	0f 90       	pop	r0
    125e:	0f 90       	pop	r0
    1260:	df 91       	pop	r29
    1262:	cf 91       	pop	r28
    1264:	1f 91       	pop	r17
    1266:	0f 91       	pop	r16
    1268:	08 95       	ret

0000126a <send_coms_packet>:
    126a:	83 e0       	ldi	r24, 0x03	; 3
    126c:	80 93 cc 01 	sts	0x01CC, r24
    1270:	10 92 cb 01 	sts	0x01CB, r1
    1274:	82 e0       	ldi	r24, 0x02	; 2
    1276:	80 93 ca 01 	sts	0x01CA, r24
    127a:	80 91 07 02 	lds	r24, 0x0207
    127e:	80 93 c9 01 	sts	0x01C9, r24
    1282:	80 91 ae 03 	lds	r24, 0x03AE
    1286:	80 93 c5 01 	sts	0x01C5, r24
    128a:	6a e0       	ldi	r22, 0x0A	; 10
    128c:	85 ec       	ldi	r24, 0xC5	; 197
    128e:	91 e0       	ldi	r25, 0x01	; 1
    1290:	0e 94 67 00 	call	0xce	; 0xce <can_send_message>
    1294:	10 92 ad 03 	sts	0x03AD, r1
    1298:	08 95       	ret

0000129a <send_read_response>:
    129a:	90 91 a8 03 	lds	r25, 0x03A8
    129e:	e0 91 a5 03 	lds	r30, 0x03A5
    12a2:	f0 e0       	ldi	r31, 0x00	; 0
    12a4:	80 81       	ld	r24, Z
    12a6:	20 91 ac 03 	lds	r18, 0x03AC
    12aa:	20 93 cc 01 	sts	0x01CC, r18
    12ae:	22 e0       	ldi	r18, 0x02	; 2
    12b0:	20 93 cb 01 	sts	0x01CB, r18
    12b4:	26 e0       	ldi	r18, 0x06	; 6
    12b6:	20 93 ca 01 	sts	0x01CA, r18
    12ba:	20 91 07 02 	lds	r18, 0x0207
    12be:	20 93 c9 01 	sts	0x01C9, r18
    12c2:	90 93 c8 01 	sts	0x01C8, r25
    12c6:	80 93 c5 01 	sts	0x01C5, r24
    12ca:	61 e1       	ldi	r22, 0x11	; 17
    12cc:	85 ec       	ldi	r24, 0xC5	; 197
    12ce:	91 e0       	ldi	r25, 0x01	; 1
    12d0:	0e 94 67 00 	call	0xce	; 0xce <can_send_message>
    12d4:	10 92 10 02 	sts	0x0210, r1
    12d8:	08 95       	ret

000012da <send_write_response>:
    12da:	80 91 05 01 	lds	r24, 0x0105
    12de:	20 91 02 01 	lds	r18, 0x0102
    12e2:	90 91 ac 03 	lds	r25, 0x03AC
    12e6:	e0 91 03 01 	lds	r30, 0x0103
    12ea:	f0 e0       	ldi	r31, 0x00	; 0
    12ec:	20 83       	st	Z, r18
    12ee:	90 93 cc 01 	sts	0x01CC, r25
    12f2:	92 e0       	ldi	r25, 0x02	; 2
    12f4:	90 93 cb 01 	sts	0x01CB, r25
    12f8:	98 e0       	ldi	r25, 0x08	; 8
    12fa:	90 93 ca 01 	sts	0x01CA, r25
    12fe:	90 91 07 02 	lds	r25, 0x0207
    1302:	90 93 c9 01 	sts	0x01C9, r25
    1306:	80 93 c8 01 	sts	0x01C8, r24
    130a:	81 e0       	ldi	r24, 0x01	; 1
    130c:	80 93 c5 01 	sts	0x01C5, r24
    1310:	61 e1       	ldi	r22, 0x11	; 17
    1312:	85 ec       	ldi	r24, 0xC5	; 197
    1314:	91 e0       	ldi	r25, 0x01	; 1
    1316:	0e 94 67 00 	call	0xce	; 0xce <can_send_message>
    131a:	10 92 e8 01 	sts	0x01E8, r1
    131e:	08 95       	ret

00001320 <set_sensor_high>:
    1320:	20 91 ec 01 	lds	r18, 0x01EC
    1324:	2a 30       	cpi	r18, 0x0A	; 10
    1326:	69 f4       	brne	.+26     	; 0x1342 <set_sensor_high+0x22>
    1328:	80 91 ea 01 	lds	r24, 0x01EA
    132c:	90 e0       	ldi	r25, 0x00	; 0
    132e:	98 2f       	mov	r25, r24
    1330:	88 27       	eor	r24, r24
    1332:	30 91 e9 01 	lds	r19, 0x01E9
    1336:	83 2b       	or	r24, r19
    1338:	90 93 ce 01 	sts	0x01CE, r25
    133c:	80 93 cd 01 	sts	0x01CD, r24
    1340:	1e c0       	rjmp	.+60     	; 0x137e <set_sensor_high+0x5e>
    1342:	21 30       	cpi	r18, 0x01	; 1
    1344:	69 f4       	brne	.+26     	; 0x1360 <set_sensor_high+0x40>
    1346:	80 91 ea 01 	lds	r24, 0x01EA
    134a:	90 e0       	ldi	r25, 0x00	; 0
    134c:	98 2f       	mov	r25, r24
    134e:	88 27       	eor	r24, r24
    1350:	30 91 e9 01 	lds	r19, 0x01E9
    1354:	83 2b       	or	r24, r19
    1356:	90 93 09 02 	sts	0x0209, r25
    135a:	80 93 08 02 	sts	0x0208, r24
    135e:	1e c0       	rjmp	.+60     	; 0x139c <set_sensor_high+0x7c>
    1360:	22 30       	cpi	r18, 0x02	; 2
    1362:	69 f4       	brne	.+26     	; 0x137e <set_sensor_high+0x5e>
    1364:	80 91 ea 01 	lds	r24, 0x01EA
    1368:	90 e0       	ldi	r25, 0x00	; 0
    136a:	98 2f       	mov	r25, r24
    136c:	88 27       	eor	r24, r24
    136e:	30 91 e9 01 	lds	r19, 0x01E9
    1372:	83 2b       	or	r24, r19
    1374:	90 93 0a 03 	sts	0x030A, r25
    1378:	80 93 09 03 	sts	0x0309, r24
    137c:	1e c0       	rjmp	.+60     	; 0x13ba <set_sensor_high+0x9a>
    137e:	23 30       	cpi	r18, 0x03	; 3
    1380:	69 f4       	brne	.+26     	; 0x139c <set_sensor_high+0x7c>
    1382:	80 91 ea 01 	lds	r24, 0x01EA
    1386:	90 e0       	ldi	r25, 0x00	; 0
    1388:	98 2f       	mov	r25, r24
    138a:	88 27       	eor	r24, r24
    138c:	30 91 e9 01 	lds	r19, 0x01E9
    1390:	83 2b       	or	r24, r19
    1392:	90 93 b2 01 	sts	0x01B2, r25
    1396:	80 93 b1 01 	sts	0x01B1, r24
    139a:	1e c0       	rjmp	.+60     	; 0x13d8 <set_sensor_high+0xb8>
    139c:	24 30       	cpi	r18, 0x04	; 4
    139e:	69 f4       	brne	.+26     	; 0x13ba <set_sensor_high+0x9a>
    13a0:	80 91 ea 01 	lds	r24, 0x01EA
    13a4:	90 e0       	ldi	r25, 0x00	; 0
    13a6:	98 2f       	mov	r25, r24
    13a8:	88 27       	eor	r24, r24
    13aa:	30 91 e9 01 	lds	r19, 0x01E9
    13ae:	83 2b       	or	r24, r19
    13b0:	90 93 a4 03 	sts	0x03A4, r25
    13b4:	80 93 a3 03 	sts	0x03A3, r24
    13b8:	1e c0       	rjmp	.+60     	; 0x13f6 <set_sensor_high+0xd6>
    13ba:	25 30       	cpi	r18, 0x05	; 5
    13bc:	69 f4       	brne	.+26     	; 0x13d8 <set_sensor_high+0xb8>
    13be:	80 91 ea 01 	lds	r24, 0x01EA
    13c2:	90 e0       	ldi	r25, 0x00	; 0
    13c4:	98 2f       	mov	r25, r24
    13c6:	88 27       	eor	r24, r24
    13c8:	30 91 e9 01 	lds	r19, 0x01E9
    13cc:	83 2b       	or	r24, r19
    13ce:	90 93 06 02 	sts	0x0206, r25
    13d2:	80 93 05 02 	sts	0x0205, r24
    13d6:	1e c0       	rjmp	.+60     	; 0x1414 <set_sensor_high+0xf4>
    13d8:	26 30       	cpi	r18, 0x06	; 6
    13da:	69 f4       	brne	.+26     	; 0x13f6 <set_sensor_high+0xd6>
    13dc:	80 91 ea 01 	lds	r24, 0x01EA
    13e0:	90 e0       	ldi	r25, 0x00	; 0
    13e2:	98 2f       	mov	r25, r24
    13e4:	88 27       	eor	r24, r24
    13e6:	30 91 e9 01 	lds	r19, 0x01E9
    13ea:	83 2b       	or	r24, r19
    13ec:	90 93 e1 02 	sts	0x02E1, r25
    13f0:	80 93 e0 02 	sts	0x02E0, r24
    13f4:	1e c0       	rjmp	.+60     	; 0x1432 <set_sensor_high+0x112>
    13f6:	21 31       	cpi	r18, 0x11	; 17
    13f8:	69 f4       	brne	.+26     	; 0x1414 <set_sensor_high+0xf4>
    13fa:	80 91 ea 01 	lds	r24, 0x01EA
    13fe:	90 e0       	ldi	r25, 0x00	; 0
    1400:	98 2f       	mov	r25, r24
    1402:	88 27       	eor	r24, r24
    1404:	30 91 e9 01 	lds	r19, 0x01E9
    1408:	83 2b       	or	r24, r19
    140a:	90 93 09 02 	sts	0x0209, r25
    140e:	80 93 08 02 	sts	0x0208, r24
    1412:	1e c0       	rjmp	.+60     	; 0x1450 <set_sensor_high+0x130>
    1414:	29 30       	cpi	r18, 0x09	; 9
    1416:	69 f4       	brne	.+26     	; 0x1432 <set_sensor_high+0x112>
    1418:	80 91 ea 01 	lds	r24, 0x01EA
    141c:	90 e0       	ldi	r25, 0x00	; 0
    141e:	98 2f       	mov	r25, r24
    1420:	88 27       	eor	r24, r24
    1422:	30 91 e9 01 	lds	r19, 0x01E9
    1426:	83 2b       	or	r24, r19
    1428:	90 93 b4 01 	sts	0x01B4, r25
    142c:	80 93 b3 01 	sts	0x01B3, r24
    1430:	1e c0       	rjmp	.+60     	; 0x146e <set_sensor_high+0x14e>
    1432:	2b 30       	cpi	r18, 0x0B	; 11
    1434:	69 f4       	brne	.+26     	; 0x1450 <set_sensor_high+0x130>
    1436:	80 91 ea 01 	lds	r24, 0x01EA
    143a:	90 e0       	ldi	r25, 0x00	; 0
    143c:	98 2f       	mov	r25, r24
    143e:	88 27       	eor	r24, r24
    1440:	30 91 e9 01 	lds	r19, 0x01E9
    1444:	83 2b       	or	r24, r19
    1446:	90 93 f7 01 	sts	0x01F7, r25
    144a:	80 93 f6 01 	sts	0x01F6, r24
    144e:	1e c0       	rjmp	.+60     	; 0x148c <set_sensor_high+0x16c>
    1450:	2c 30       	cpi	r18, 0x0C	; 12
    1452:	69 f4       	brne	.+26     	; 0x146e <set_sensor_high+0x14e>
    1454:	80 91 ea 01 	lds	r24, 0x01EA
    1458:	90 e0       	ldi	r25, 0x00	; 0
    145a:	98 2f       	mov	r25, r24
    145c:	88 27       	eor	r24, r24
    145e:	30 91 e9 01 	lds	r19, 0x01E9
    1462:	83 2b       	or	r24, r19
    1464:	90 93 da 01 	sts	0x01DA, r25
    1468:	80 93 d9 01 	sts	0x01D9, r24
    146c:	1e c0       	rjmp	.+60     	; 0x14aa <set_sensor_high+0x18a>
    146e:	2d 30       	cpi	r18, 0x0D	; 13
    1470:	69 f4       	brne	.+26     	; 0x148c <set_sensor_high+0x16c>
    1472:	80 91 ea 01 	lds	r24, 0x01EA
    1476:	90 e0       	ldi	r25, 0x00	; 0
    1478:	98 2f       	mov	r25, r24
    147a:	88 27       	eor	r24, r24
    147c:	30 91 e9 01 	lds	r19, 0x01E9
    1480:	83 2b       	or	r24, r19
    1482:	90 93 a8 01 	sts	0x01A8, r25
    1486:	80 93 a7 01 	sts	0x01A7, r24
    148a:	1e c0       	rjmp	.+60     	; 0x14c8 <set_sensor_high+0x1a8>
    148c:	2e 30       	cpi	r18, 0x0E	; 14
    148e:	69 f4       	brne	.+26     	; 0x14aa <set_sensor_high+0x18a>
    1490:	80 91 ea 01 	lds	r24, 0x01EA
    1494:	90 e0       	ldi	r25, 0x00	; 0
    1496:	98 2f       	mov	r25, r24
    1498:	88 27       	eor	r24, r24
    149a:	20 91 e9 01 	lds	r18, 0x01E9
    149e:	82 2b       	or	r24, r18
    14a0:	90 93 f4 02 	sts	0x02F4, r25
    14a4:	80 93 f3 02 	sts	0x02F3, r24
    14a8:	1d c0       	rjmp	.+58     	; 0x14e4 <set_sensor_high+0x1c4>
    14aa:	2f 30       	cpi	r18, 0x0F	; 15
    14ac:	69 f4       	brne	.+26     	; 0x14c8 <set_sensor_high+0x1a8>
    14ae:	80 91 ea 01 	lds	r24, 0x01EA
    14b2:	90 e0       	ldi	r25, 0x00	; 0
    14b4:	98 2f       	mov	r25, r24
    14b6:	88 27       	eor	r24, r24
    14b8:	20 91 e9 01 	lds	r18, 0x01E9
    14bc:	82 2b       	or	r24, r18
    14be:	90 93 e7 01 	sts	0x01E7, r25
    14c2:	80 93 e6 01 	sts	0x01E6, r24
    14c6:	0e c0       	rjmp	.+28     	; 0x14e4 <set_sensor_high+0x1c4>
    14c8:	20 31       	cpi	r18, 0x10	; 16
    14ca:	61 f4       	brne	.+24     	; 0x14e4 <set_sensor_high+0x1c4>
    14cc:	80 91 ea 01 	lds	r24, 0x01EA
    14d0:	90 e0       	ldi	r25, 0x00	; 0
    14d2:	98 2f       	mov	r25, r24
    14d4:	88 27       	eor	r24, r24
    14d6:	20 91 e9 01 	lds	r18, 0x01E9
    14da:	82 2b       	or	r24, r18
    14dc:	90 93 b3 02 	sts	0x02B3, r25
    14e0:	80 93 b2 02 	sts	0x02B2, r24
    14e4:	10 92 d0 02 	sts	0x02D0, r1
    14e8:	08 95       	ret

000014ea <set_sensor_low>:
    14ea:	20 91 03 03 	lds	r18, 0x0303
    14ee:	2a 30       	cpi	r18, 0x0A	; 10
    14f0:	69 f4       	brne	.+26     	; 0x150c <set_sensor_low+0x22>
    14f2:	80 91 01 03 	lds	r24, 0x0301
    14f6:	90 e0       	ldi	r25, 0x00	; 0
    14f8:	98 2f       	mov	r25, r24
    14fa:	88 27       	eor	r24, r24
    14fc:	30 91 00 03 	lds	r19, 0x0300
    1500:	83 2b       	or	r24, r19
    1502:	90 93 d0 01 	sts	0x01D0, r25
    1506:	80 93 cf 01 	sts	0x01CF, r24
    150a:	1e c0       	rjmp	.+60     	; 0x1548 <set_sensor_low+0x5e>
    150c:	21 30       	cpi	r18, 0x01	; 1
    150e:	69 f4       	brne	.+26     	; 0x152a <set_sensor_low+0x40>
    1510:	80 91 01 03 	lds	r24, 0x0301
    1514:	90 e0       	ldi	r25, 0x00	; 0
    1516:	98 2f       	mov	r25, r24
    1518:	88 27       	eor	r24, r24
    151a:	30 91 00 03 	lds	r19, 0x0300
    151e:	83 2b       	or	r24, r19
    1520:	90 93 b5 02 	sts	0x02B5, r25
    1524:	80 93 b4 02 	sts	0x02B4, r24
    1528:	1e c0       	rjmp	.+60     	; 0x1566 <set_sensor_low+0x7c>
    152a:	22 30       	cpi	r18, 0x02	; 2
    152c:	69 f4       	brne	.+26     	; 0x1548 <set_sensor_low+0x5e>
    152e:	80 91 01 03 	lds	r24, 0x0301
    1532:	90 e0       	ldi	r25, 0x00	; 0
    1534:	98 2f       	mov	r25, r24
    1536:	88 27       	eor	r24, r24
    1538:	30 91 00 03 	lds	r19, 0x0300
    153c:	83 2b       	or	r24, r19
    153e:	90 93 e5 01 	sts	0x01E5, r25
    1542:	80 93 e4 01 	sts	0x01E4, r24
    1546:	1e c0       	rjmp	.+60     	; 0x1584 <set_sensor_low+0x9a>
    1548:	23 30       	cpi	r18, 0x03	; 3
    154a:	69 f4       	brne	.+26     	; 0x1566 <set_sensor_low+0x7c>
    154c:	80 91 01 03 	lds	r24, 0x0301
    1550:	90 e0       	ldi	r25, 0x00	; 0
    1552:	98 2f       	mov	r25, r24
    1554:	88 27       	eor	r24, r24
    1556:	30 91 00 03 	lds	r19, 0x0300
    155a:	83 2b       	or	r24, r19
    155c:	90 93 b7 02 	sts	0x02B7, r25
    1560:	80 93 b6 02 	sts	0x02B6, r24
    1564:	1e c0       	rjmp	.+60     	; 0x15a2 <set_sensor_low+0xb8>
    1566:	24 30       	cpi	r18, 0x04	; 4
    1568:	69 f4       	brne	.+26     	; 0x1584 <set_sensor_low+0x9a>
    156a:	80 91 01 03 	lds	r24, 0x0301
    156e:	90 e0       	ldi	r25, 0x00	; 0
    1570:	98 2f       	mov	r25, r24
    1572:	88 27       	eor	r24, r24
    1574:	30 91 00 03 	lds	r19, 0x0300
    1578:	83 2b       	or	r24, r19
    157a:	90 93 c7 02 	sts	0x02C7, r25
    157e:	80 93 c6 02 	sts	0x02C6, r24
    1582:	1e c0       	rjmp	.+60     	; 0x15c0 <set_sensor_low+0xd6>
    1584:	25 30       	cpi	r18, 0x05	; 5
    1586:	69 f4       	brne	.+26     	; 0x15a2 <set_sensor_low+0xb8>
    1588:	80 91 01 03 	lds	r24, 0x0301
    158c:	90 e0       	ldi	r25, 0x00	; 0
    158e:	98 2f       	mov	r25, r24
    1590:	88 27       	eor	r24, r24
    1592:	30 91 00 03 	lds	r19, 0x0300
    1596:	83 2b       	or	r24, r19
    1598:	90 93 03 02 	sts	0x0203, r25
    159c:	80 93 02 02 	sts	0x0202, r24
    15a0:	1e c0       	rjmp	.+60     	; 0x15de <set_sensor_low+0xf4>
    15a2:	26 30       	cpi	r18, 0x06	; 6
    15a4:	69 f4       	brne	.+26     	; 0x15c0 <set_sensor_low+0xd6>
    15a6:	80 91 01 03 	lds	r24, 0x0301
    15aa:	90 e0       	ldi	r25, 0x00	; 0
    15ac:	98 2f       	mov	r25, r24
    15ae:	88 27       	eor	r24, r24
    15b0:	30 91 00 03 	lds	r19, 0x0300
    15b4:	83 2b       	or	r24, r19
    15b6:	90 93 0c 01 	sts	0x010C, r25
    15ba:	80 93 0b 01 	sts	0x010B, r24
    15be:	1e c0       	rjmp	.+60     	; 0x15fc <set_sensor_low+0x112>
    15c0:	21 31       	cpi	r18, 0x11	; 17
    15c2:	69 f4       	brne	.+26     	; 0x15de <set_sensor_low+0xf4>
    15c4:	80 91 01 03 	lds	r24, 0x0301
    15c8:	90 e0       	ldi	r25, 0x00	; 0
    15ca:	98 2f       	mov	r25, r24
    15cc:	88 27       	eor	r24, r24
    15ce:	30 91 00 03 	lds	r19, 0x0300
    15d2:	83 2b       	or	r24, r19
    15d4:	90 93 b5 02 	sts	0x02B5, r25
    15d8:	80 93 b4 02 	sts	0x02B4, r24
    15dc:	1e c0       	rjmp	.+60     	; 0x161a <set_sensor_low+0x130>
    15de:	29 30       	cpi	r18, 0x09	; 9
    15e0:	69 f4       	brne	.+26     	; 0x15fc <set_sensor_low+0x112>
    15e2:	80 91 01 03 	lds	r24, 0x0301
    15e6:	90 e0       	ldi	r25, 0x00	; 0
    15e8:	98 2f       	mov	r25, r24
    15ea:	88 27       	eor	r24, r24
    15ec:	30 91 00 03 	lds	r19, 0x0300
    15f0:	83 2b       	or	r24, r19
    15f2:	90 93 e3 02 	sts	0x02E3, r25
    15f6:	80 93 e2 02 	sts	0x02E2, r24
    15fa:	1e c0       	rjmp	.+60     	; 0x1638 <set_sensor_low+0x14e>
    15fc:	2b 30       	cpi	r18, 0x0B	; 11
    15fe:	69 f4       	brne	.+26     	; 0x161a <set_sensor_low+0x130>
    1600:	80 91 01 03 	lds	r24, 0x0301
    1604:	90 e0       	ldi	r25, 0x00	; 0
    1606:	98 2f       	mov	r25, r24
    1608:	88 27       	eor	r24, r24
    160a:	30 91 00 03 	lds	r19, 0x0300
    160e:	83 2b       	or	r24, r19
    1610:	90 93 01 02 	sts	0x0201, r25
    1614:	80 93 00 02 	sts	0x0200, r24
    1618:	1e c0       	rjmp	.+60     	; 0x1656 <set_sensor_low+0x16c>
    161a:	2c 30       	cpi	r18, 0x0C	; 12
    161c:	69 f4       	brne	.+26     	; 0x1638 <set_sensor_low+0x14e>
    161e:	80 91 01 03 	lds	r24, 0x0301
    1622:	90 e0       	ldi	r25, 0x00	; 0
    1624:	98 2f       	mov	r25, r24
    1626:	88 27       	eor	r24, r24
    1628:	30 91 00 03 	lds	r19, 0x0300
    162c:	83 2b       	or	r24, r19
    162e:	90 93 f2 02 	sts	0x02F2, r25
    1632:	80 93 f1 02 	sts	0x02F1, r24
    1636:	1e c0       	rjmp	.+60     	; 0x1674 <set_sensor_low+0x18a>
    1638:	2d 30       	cpi	r18, 0x0D	; 13
    163a:	69 f4       	brne	.+26     	; 0x1656 <set_sensor_low+0x16c>
    163c:	80 91 01 03 	lds	r24, 0x0301
    1640:	90 e0       	ldi	r25, 0x00	; 0
    1642:	98 2f       	mov	r25, r24
    1644:	88 27       	eor	r24, r24
    1646:	30 91 00 03 	lds	r19, 0x0300
    164a:	83 2b       	or	r24, r19
    164c:	90 93 0e 01 	sts	0x010E, r25
    1650:	80 93 0d 01 	sts	0x010D, r24
    1654:	1e c0       	rjmp	.+60     	; 0x1692 <set_sensor_low+0x1a8>
    1656:	2e 30       	cpi	r18, 0x0E	; 14
    1658:	69 f4       	brne	.+26     	; 0x1674 <set_sensor_low+0x18a>
    165a:	80 91 01 03 	lds	r24, 0x0301
    165e:	90 e0       	ldi	r25, 0x00	; 0
    1660:	98 2f       	mov	r25, r24
    1662:	88 27       	eor	r24, r24
    1664:	20 91 00 03 	lds	r18, 0x0300
    1668:	82 2b       	or	r24, r18
    166a:	90 93 0f 02 	sts	0x020F, r25
    166e:	80 93 0e 02 	sts	0x020E, r24
    1672:	1d c0       	rjmp	.+58     	; 0x16ae <set_sensor_low+0x1c4>
    1674:	2f 30       	cpi	r18, 0x0F	; 15
    1676:	69 f4       	brne	.+26     	; 0x1692 <set_sensor_low+0x1a8>
    1678:	80 91 01 03 	lds	r24, 0x0301
    167c:	90 e0       	ldi	r25, 0x00	; 0
    167e:	98 2f       	mov	r25, r24
    1680:	88 27       	eor	r24, r24
    1682:	20 91 00 03 	lds	r18, 0x0300
    1686:	82 2b       	or	r24, r18
    1688:	90 93 ff 02 	sts	0x02FF, r25
    168c:	80 93 fe 02 	sts	0x02FE, r24
    1690:	0e c0       	rjmp	.+28     	; 0x16ae <set_sensor_low+0x1c4>
    1692:	20 31       	cpi	r18, 0x10	; 16
    1694:	61 f4       	brne	.+24     	; 0x16ae <set_sensor_low+0x1c4>
    1696:	80 91 01 03 	lds	r24, 0x0301
    169a:	90 e0       	ldi	r25, 0x00	; 0
    169c:	98 2f       	mov	r25, r24
    169e:	88 27       	eor	r24, r24
    16a0:	20 91 00 03 	lds	r18, 0x0300
    16a4:	82 2b       	or	r24, r18
    16a6:	90 93 ed 02 	sts	0x02ED, r25
    16aa:	80 93 ec 02 	sts	0x02EC, r24
    16ae:	10 92 d5 02 	sts	0x02D5, r1
    16b2:	08 95       	ret

000016b4 <set_var>:
    16b4:	80 91 df 01 	lds	r24, 0x01DF
    16b8:	8f 3f       	cpi	r24, 0xFF	; 255
    16ba:	29 f4       	brne	.+10     	; 0x16c6 <set_var+0x12>
    16bc:	90 91 dc 01 	lds	r25, 0x01DC
    16c0:	90 93 0c 02 	sts	0x020C, r25
    16c4:	0e c0       	rjmp	.+28     	; 0x16e2 <set_var+0x2e>
    16c6:	8e 3f       	cpi	r24, 0xFE	; 254
    16c8:	29 f4       	brne	.+10     	; 0x16d4 <set_var+0x20>
    16ca:	80 91 dc 01 	lds	r24, 0x01DC
    16ce:	80 93 04 02 	sts	0x0204, r24
    16d2:	0d c0       	rjmp	.+26     	; 0x16ee <set_var+0x3a>
    16d4:	80 3f       	cpi	r24, 0xF0	; 240
    16d6:	29 f4       	brne	.+10     	; 0x16e2 <set_var+0x2e>
    16d8:	80 91 dc 01 	lds	r24, 0x01DC
    16dc:	80 93 f3 01 	sts	0x01F3, r24
    16e0:	06 c0       	rjmp	.+12     	; 0x16ee <set_var+0x3a>
    16e2:	81 3f       	cpi	r24, 0xF1	; 241
    16e4:	21 f4       	brne	.+8      	; 0x16ee <set_var+0x3a>
    16e6:	80 91 dc 01 	lds	r24, 0x01DC
    16ea:	80 93 db 01 	sts	0x01DB, r24
    16ee:	10 92 d4 02 	sts	0x02D4, r1
    16f2:	08 95       	ret

000016f4 <receive_tm_msg>:
    16f4:	80 91 dd 02 	lds	r24, 0x02DD
    16f8:	82 95       	swap	r24
    16fa:	8f 70       	andi	r24, 0x0F	; 15
    16fc:	90 91 da 02 	lds	r25, 0x02DA
    1700:	29 2f       	mov	r18, r25
    1702:	30 e0       	ldi	r19, 0x00	; 0
    1704:	60 91 00 01 	lds	r22, 0x0100
    1708:	46 2f       	mov	r20, r22
    170a:	50 e0       	ldi	r21, 0x00	; 0
    170c:	4f 5f       	subi	r20, 0xFF	; 255
    170e:	5f 4f       	sbci	r21, 0xFF	; 255
    1710:	42 17       	cp	r20, r18
    1712:	53 07       	cpc	r21, r19
    1714:	94 f4       	brge	.+36     	; 0x173a <receive_tm_msg+0x46>
    1716:	6f ef       	ldi	r22, 0xFF	; 255
    1718:	0e 94 9c 08 	call	0x1138	; 0x1138 <send_tm_transaction_response>
    171c:	10 92 00 01 	sts	0x0100, r1
    1720:	10 92 0d 02 	sts	0x020D, r1
    1724:	10 92 f5 02 	sts	0x02F5, r1
    1728:	e1 e1       	ldi	r30, 0x11	; 17
    172a:	f2 e0       	ldi	r31, 0x02	; 2
    172c:	80 ea       	ldi	r24, 0xA0	; 160
    172e:	92 e0       	ldi	r25, 0x02	; 2
    1730:	11 92       	st	Z+, r1
    1732:	e8 17       	cp	r30, r24
    1734:	f9 07       	cpc	r31, r25
    1736:	e1 f7       	brne	.-8      	; 0x1730 <receive_tm_msg+0x3c>
    1738:	08 95       	ret
    173a:	70 91 d2 02 	lds	r23, 0x02D2
    173e:	77 23       	and	r23, r23
    1740:	51 f0       	breq	.+20     	; 0x1756 <receive_tm_msg+0x62>
    1742:	6f ef       	ldi	r22, 0xFF	; 255
    1744:	0e 94 9c 08 	call	0x1138	; 0x1138 <send_tm_transaction_response>
    1748:	10 92 00 01 	sts	0x0100, r1
    174c:	10 92 0d 02 	sts	0x020D, r1
    1750:	10 92 f5 02 	sts	0x02F5, r1
    1754:	08 95       	ret
    1756:	91 11       	cpse	r25, r1
    1758:	03 c0       	rjmp	.+6      	; 0x1760 <receive_tm_msg+0x6c>
    175a:	66 23       	and	r22, r22
    175c:	09 f4       	brne	.+2      	; 0x1760 <receive_tm_msg+0x6c>
    175e:	47 c0       	rjmp	.+142    	; 0x17ee <receive_tm_msg+0xfa>
    1760:	24 17       	cp	r18, r20
    1762:	35 07       	cpc	r19, r21
    1764:	91 f5       	brne	.+100    	; 0x17ca <receive_tm_msg+0xd6>
    1766:	90 93 00 01 	sts	0x0100, r25
    176a:	41 e0       	ldi	r20, 0x01	; 1
    176c:	40 93 f5 02 	sts	0x02F5, r20
    1770:	f9 01       	movw	r30, r18
    1772:	ee 0f       	add	r30, r30
    1774:	ff 1f       	adc	r31, r31
    1776:	ee 0f       	add	r30, r30
    1778:	ff 1f       	adc	r31, r31
    177a:	ef 5e       	subi	r30, 0xEF	; 239
    177c:	fd 4f       	sbci	r31, 0xFD	; 253
    177e:	20 91 d6 02 	lds	r18, 0x02D6
    1782:	20 83       	st	Z, r18
    1784:	20 91 d7 02 	lds	r18, 0x02D7
    1788:	21 83       	std	Z+1, r18	; 0x01
    178a:	20 91 d8 02 	lds	r18, 0x02D8
    178e:	22 83       	std	Z+2, r18	; 0x02
    1790:	20 91 d9 02 	lds	r18, 0x02D9
    1794:	23 83       	std	Z+3, r18	; 0x03
    1796:	93 32       	cpi	r25, 0x23	; 35
    1798:	a9 f4       	brne	.+42     	; 0x17c4 <receive_tm_msg+0xd0>
    179a:	10 92 00 01 	sts	0x0100, r1
    179e:	10 92 f5 02 	sts	0x02F5, r1
    17a2:	91 e0       	ldi	r25, 0x01	; 1
    17a4:	90 93 d2 02 	sts	0x02D2, r25
    17a8:	e1 e1       	ldi	r30, 0x11	; 17
    17aa:	f2 e0       	ldi	r31, 0x02	; 2
    17ac:	af e0       	ldi	r26, 0x0F	; 15
    17ae:	b1 e0       	ldi	r27, 0x01	; 1
    17b0:	20 ea       	ldi	r18, 0xA0	; 160
    17b2:	32 e0       	ldi	r19, 0x02	; 2
    17b4:	91 91       	ld	r25, Z+
    17b6:	9d 93       	st	X+, r25
    17b8:	e2 17       	cp	r30, r18
    17ba:	f3 07       	cpc	r31, r19
    17bc:	d9 f7       	brne	.-10     	; 0x17b4 <receive_tm_msg+0xc0>
    17be:	63 e2       	ldi	r22, 0x23	; 35
    17c0:	0e 94 9c 08 	call	0x1138	; 0x1138 <send_tm_transaction_response>
    17c4:	10 92 0d 02 	sts	0x020D, r1
    17c8:	08 95       	ret
    17ca:	6f ef       	ldi	r22, 0xFF	; 255
    17cc:	0e 94 9c 08 	call	0x1138	; 0x1138 <send_tm_transaction_response>
    17d0:	10 92 00 01 	sts	0x0100, r1
    17d4:	10 92 f5 02 	sts	0x02F5, r1
    17d8:	10 92 0d 02 	sts	0x020D, r1
    17dc:	e1 e1       	ldi	r30, 0x11	; 17
    17de:	f2 e0       	ldi	r31, 0x02	; 2
    17e0:	80 ea       	ldi	r24, 0xA0	; 160
    17e2:	92 e0       	ldi	r25, 0x02	; 2
    17e4:	11 92       	st	Z+, r1
    17e6:	e8 17       	cp	r30, r24
    17e8:	f9 07       	cpc	r31, r25
    17ea:	e1 f7       	brne	.-8      	; 0x17e4 <receive_tm_msg+0xf0>
    17ec:	08 95       	ret
    17ee:	81 e0       	ldi	r24, 0x01	; 1
    17f0:	80 93 f5 02 	sts	0x02F5, r24
    17f4:	f9 01       	movw	r30, r18
    17f6:	ee 0f       	add	r30, r30
    17f8:	ff 1f       	adc	r31, r31
    17fa:	ee 0f       	add	r30, r30
    17fc:	ff 1f       	adc	r31, r31
    17fe:	ef 5e       	subi	r30, 0xEF	; 239
    1800:	fd 4f       	sbci	r31, 0xFD	; 253
    1802:	80 91 d6 02 	lds	r24, 0x02D6
    1806:	80 83       	st	Z, r24
    1808:	80 91 d7 02 	lds	r24, 0x02D7
    180c:	81 83       	std	Z+1, r24	; 0x01
    180e:	80 91 d8 02 	lds	r24, 0x02D8
    1812:	82 83       	std	Z+2, r24	; 0x02
    1814:	80 91 d9 02 	lds	r24, 0x02D9
    1818:	83 83       	std	Z+3, r24	; 0x03
    181a:	d4 cf       	rjmp	.-88     	; 0x17c4 <receive_tm_msg+0xd0>

0000181c <alert_obc_tcp_ready>:
    181c:	8a e0       	ldi	r24, 0x0A	; 10
    181e:	80 93 cc 01 	sts	0x01CC, r24
    1822:	82 e0       	ldi	r24, 0x02	; 2
    1824:	80 93 cb 01 	sts	0x01CB, r24
    1828:	81 e1       	ldi	r24, 0x11	; 17
    182a:	80 93 ca 01 	sts	0x01CA, r24
    182e:	80 91 07 02 	lds	r24, 0x0207
    1832:	80 93 c9 01 	sts	0x01C9, r24
    1836:	61 e1       	ldi	r22, 0x11	; 17
    1838:	85 ec       	ldi	r24, 0xC5	; 197
    183a:	91 e0       	ldi	r25, 0x01	; 1
    183c:	0e 94 67 00 	call	0xce	; 0xce <can_send_message>
    1840:	08 95       	ret

00001842 <send_pus_packet_tc>:
    1842:	2f 92       	push	r2
    1844:	3f 92       	push	r3
    1846:	4f 92       	push	r4
    1848:	5f 92       	push	r5
    184a:	6f 92       	push	r6
    184c:	7f 92       	push	r7
    184e:	8f 92       	push	r8
    1850:	9f 92       	push	r9
    1852:	af 92       	push	r10
    1854:	bf 92       	push	r11
    1856:	cf 92       	push	r12
    1858:	df 92       	push	r13
    185a:	ef 92       	push	r14
    185c:	ff 92       	push	r15
    185e:	0f 93       	push	r16
    1860:	1f 93       	push	r17
    1862:	cf 93       	push	r28
    1864:	df 93       	push	r29
    1866:	10 92 f5 01 	sts	0x01F5, r1
    186a:	10 92 f4 01 	sts	0x01F4, r1
    186e:	0e 94 0e 0c 	call	0x181c	; 0x181c <alert_obc_tcp_ready>
    1872:	80 91 f4 01 	lds	r24, 0x01F4
    1876:	81 11       	cpse	r24, r1
    1878:	0d c0       	rjmp	.+26     	; 0x1894 <send_pus_packet_tc+0x52>
    187a:	ca ef       	ldi	r28, 0xFA	; 250
    187c:	03 c0       	rjmp	.+6      	; 0x1884 <send_pus_packet_tc+0x42>
    187e:	c1 50       	subi	r28, 0x01	; 1
    1880:	09 f4       	brne	.+2      	; 0x1884 <send_pus_packet_tc+0x42>
    1882:	86 c0       	rjmp	.+268    	; 0x1990 <send_pus_packet_tc+0x14e>
    1884:	8a e0       	ldi	r24, 0x0A	; 10
    1886:	90 e0       	ldi	r25, 0x00	; 0
    1888:	0e 94 fa 0e 	call	0x1df4	; 0x1df4 <delay_us>
    188c:	80 91 f4 01 	lds	r24, 0x01F4
    1890:	88 23       	and	r24, r24
    1892:	a9 f3       	breq	.-22     	; 0x187e <send_pus_packet_tc+0x3c>
    1894:	10 92 f4 01 	sts	0x01F4, r1
    1898:	80 91 f5 01 	lds	r24, 0x01F5
    189c:	8f 3f       	cpi	r24, 0xFF	; 255
    189e:	09 f4       	brne	.+2      	; 0x18a2 <send_pus_packet_tc+0x60>
    18a0:	77 c0       	rjmp	.+238    	; 0x1990 <send_pus_packet_tc+0x14e>
    18a2:	0f 2e       	mov	r0, r31
    18a4:	fe e0       	ldi	r31, 0x0E	; 14
    18a6:	4f 2e       	mov	r4, r31
    18a8:	f3 e0       	ldi	r31, 0x03	; 3
    18aa:	5f 2e       	mov	r5, r31
    18ac:	f0 2d       	mov	r31, r0
    18ae:	31 2c       	mov	r3, r1
    18b0:	c5 ec       	ldi	r28, 0xC5	; 197
    18b2:	d1 e0       	ldi	r29, 0x01	; 1
    18b4:	0f 2e       	mov	r0, r31
    18b6:	f6 ec       	ldi	r31, 0xC6	; 198
    18b8:	af 2e       	mov	r10, r31
    18ba:	f1 e0       	ldi	r31, 0x01	; 1
    18bc:	bf 2e       	mov	r11, r31
    18be:	f0 2d       	mov	r31, r0
    18c0:	0f 2e       	mov	r0, r31
    18c2:	f7 ec       	ldi	r31, 0xC7	; 199
    18c4:	cf 2e       	mov	r12, r31
    18c6:	f1 e0       	ldi	r31, 0x01	; 1
    18c8:	df 2e       	mov	r13, r31
    18ca:	f0 2d       	mov	r31, r0
    18cc:	0f 2e       	mov	r0, r31
    18ce:	f8 ec       	ldi	r31, 0xC8	; 200
    18d0:	ef 2e       	mov	r14, r31
    18d2:	f1 e0       	ldi	r31, 0x01	; 1
    18d4:	ff 2e       	mov	r15, r31
    18d6:	f0 2d       	mov	r31, r0
    18d8:	0c ec       	ldi	r16, 0xCC	; 204
    18da:	11 e0       	ldi	r17, 0x01	; 1
    18dc:	0f 2e       	mov	r0, r31
    18de:	fa e0       	ldi	r31, 0x0A	; 10
    18e0:	2f 2e       	mov	r2, r31
    18e2:	f0 2d       	mov	r31, r0
    18e4:	0f 2e       	mov	r0, r31
    18e6:	fb ec       	ldi	r31, 0xCB	; 203
    18e8:	8f 2e       	mov	r8, r31
    18ea:	f1 e0       	ldi	r31, 0x01	; 1
    18ec:	9f 2e       	mov	r9, r31
    18ee:	f0 2d       	mov	r31, r0
    18f0:	0f 2e       	mov	r0, r31
    18f2:	fa ec       	ldi	r31, 0xCA	; 202
    18f4:	6f 2e       	mov	r6, r31
    18f6:	f1 e0       	ldi	r31, 0x01	; 1
    18f8:	7f 2e       	mov	r7, r31
    18fa:	f0 2d       	mov	r31, r0
    18fc:	08 c0       	rjmp	.+16     	; 0x190e <send_pus_packet_tc+0xcc>
    18fe:	84 e0       	ldi	r24, 0x04	; 4
    1900:	48 0e       	add	r4, r24
    1902:	51 1c       	adc	r5, r1
    1904:	80 91 f5 01 	lds	r24, 0x01F5
    1908:	8f 3f       	cpi	r24, 0xFF	; 255
    190a:	09 f4       	brne	.+2      	; 0x190e <send_pus_packet_tc+0xcc>
    190c:	41 c0       	rjmp	.+130    	; 0x1990 <send_pus_packet_tc+0x14e>
    190e:	f2 01       	movw	r30, r4
    1910:	33 97       	sbiw	r30, 0x03	; 3
    1912:	80 81       	ld	r24, Z
    1914:	88 83       	st	Y, r24
    1916:	31 96       	adiw	r30, 0x01	; 1
    1918:	80 81       	ld	r24, Z
    191a:	f5 01       	movw	r30, r10
    191c:	80 83       	st	Z, r24
    191e:	f2 01       	movw	r30, r4
    1920:	31 97       	sbiw	r30, 0x01	; 1
    1922:	80 81       	ld	r24, Z
    1924:	f6 01       	movw	r30, r12
    1926:	80 83       	st	Z, r24
    1928:	f2 01       	movw	r30, r4
    192a:	80 81       	ld	r24, Z
    192c:	f7 01       	movw	r30, r14
    192e:	80 83       	st	Z, r24
    1930:	f8 01       	movw	r30, r16
    1932:	20 82       	st	Z, r2
    1934:	82 e0       	ldi	r24, 0x02	; 2
    1936:	f4 01       	movw	r30, r8
    1938:	80 83       	st	Z, r24
    193a:	8e e0       	ldi	r24, 0x0E	; 14
    193c:	f3 01       	movw	r30, r6
    193e:	80 83       	st	Z, r24
    1940:	e9 ec       	ldi	r30, 0xC9	; 201
    1942:	f1 e0       	ldi	r31, 0x01	; 1
    1944:	30 82       	st	Z, r3
    1946:	61 e1       	ldi	r22, 0x11	; 17
    1948:	ce 01       	movw	r24, r28
    194a:	0e 94 67 00 	call	0xce	; 0xce <can_send_message>
    194e:	81 e0       	ldi	r24, 0x01	; 1
    1950:	90 e0       	ldi	r25, 0x00	; 0
    1952:	0e 94 0c 0f 	call	0x1e18	; 0x1e18 <delay_ms>
    1956:	33 94       	inc	r3
    1958:	f6 e2       	ldi	r31, 0x26	; 38
    195a:	3f 12       	cpse	r3, r31
    195c:	d0 cf       	rjmp	.-96     	; 0x18fe <send_pus_packet_tc+0xbc>
    195e:	80 91 f5 01 	lds	r24, 0x01F5
    1962:	81 11       	cpse	r24, r1
    1964:	0c c0       	rjmp	.+24     	; 0x197e <send_pus_packet_tc+0x13c>
    1966:	c4 e6       	ldi	r28, 0x64	; 100
    1968:	02 c0       	rjmp	.+4      	; 0x196e <send_pus_packet_tc+0x12c>
    196a:	c1 50       	subi	r28, 0x01	; 1
    196c:	89 f0       	breq	.+34     	; 0x1990 <send_pus_packet_tc+0x14e>
    196e:	84 e6       	ldi	r24, 0x64	; 100
    1970:	90 e0       	ldi	r25, 0x00	; 0
    1972:	0e 94 fa 0e 	call	0x1df4	; 0x1df4 <delay_us>
    1976:	80 91 f5 01 	lds	r24, 0x01F5
    197a:	88 23       	and	r24, r24
    197c:	b1 f3       	breq	.-20     	; 0x196a <send_pus_packet_tc+0x128>
    197e:	83 32       	cpi	r24, 0x23	; 35
    1980:	19 f0       	breq	.+6      	; 0x1988 <send_pus_packet_tc+0x146>
    1982:	10 92 f5 01 	sts	0x01F5, r1
    1986:	04 c0       	rjmp	.+8      	; 0x1990 <send_pus_packet_tc+0x14e>
    1988:	10 92 f5 01 	sts	0x01F5, r1
    198c:	10 92 d1 02 	sts	0x02D1, r1
    1990:	df 91       	pop	r29
    1992:	cf 91       	pop	r28
    1994:	1f 91       	pop	r17
    1996:	0f 91       	pop	r16
    1998:	ff 90       	pop	r15
    199a:	ef 90       	pop	r14
    199c:	df 90       	pop	r13
    199e:	cf 90       	pop	r12
    19a0:	bf 90       	pop	r11
    19a2:	af 90       	pop	r10
    19a4:	9f 90       	pop	r9
    19a6:	8f 90       	pop	r8
    19a8:	7f 90       	pop	r7
    19aa:	6f 90       	pop	r6
    19ac:	5f 90       	pop	r5
    19ae:	4f 90       	pop	r4
    19b0:	3f 90       	pop	r3
    19b2:	2f 90       	pop	r2
    19b4:	08 95       	ret

000019b6 <send_event>:
    19b6:	8a e0       	ldi	r24, 0x0A	; 10
    19b8:	80 93 cc 01 	sts	0x01CC, r24
    19bc:	82 e0       	ldi	r24, 0x02	; 2
    19be:	80 93 cb 01 	sts	0x01CB, r24
    19c2:	86 e1       	ldi	r24, 0x16	; 22
    19c4:	80 93 ca 01 	sts	0x01CA, r24
    19c8:	80 91 07 02 	lds	r24, 0x0207
    19cc:	80 93 c9 01 	sts	0x01C9, r24
    19d0:	80 91 ac 01 	lds	r24, 0x01AC
    19d4:	80 93 c8 01 	sts	0x01C8, r24
    19d8:	80 91 ab 01 	lds	r24, 0x01AB
    19dc:	80 93 c7 01 	sts	0x01C7, r24
    19e0:	80 91 aa 01 	lds	r24, 0x01AA
    19e4:	80 93 c6 01 	sts	0x01C6, r24
    19e8:	80 91 a9 01 	lds	r24, 0x01A9
    19ec:	80 93 c5 01 	sts	0x01C5, r24
    19f0:	61 e1       	ldi	r22, 0x11	; 17
    19f2:	85 ec       	ldi	r24, 0xC5	; 197
    19f4:	91 e0       	ldi	r25, 0x01	; 1
    19f6:	0e 94 67 00 	call	0xce	; 0xce <can_send_message>
    19fa:	08 95       	ret

000019fc <run_commands>:
    19fc:	80 91 0b 02 	lds	r24, 0x020B
    1a00:	81 11       	cpse	r24, r1
    1a02:	0e 94 b6 08 	call	0x116c	; 0x116c <send_response>
    1a06:	80 91 b1 02 	lds	r24, 0x02B1
    1a0a:	81 11       	cpse	r24, r1
    1a0c:	0e 94 cb 08 	call	0x1196	; 0x1196 <send_housekeeping>
    1a10:	80 91 d3 02 	lds	r24, 0x02D3
    1a14:	81 11       	cpse	r24, r1
    1a16:	0e 94 dd 08 	call	0x11ba	; 0x11ba <send_sensor_data>
    1a1a:	80 91 ad 03 	lds	r24, 0x03AD
    1a1e:	81 11       	cpse	r24, r1
    1a20:	0e 94 35 09 	call	0x126a	; 0x126a <send_coms_packet>
    1a24:	80 91 10 02 	lds	r24, 0x0210
    1a28:	81 11       	cpse	r24, r1
    1a2a:	0e 94 4d 09 	call	0x129a	; 0x129a <send_read_response>
    1a2e:	80 91 e8 01 	lds	r24, 0x01E8
    1a32:	81 11       	cpse	r24, r1
    1a34:	0e 94 6d 09 	call	0x12da	; 0x12da <send_write_response>
    1a38:	80 91 d0 02 	lds	r24, 0x02D0
    1a3c:	81 11       	cpse	r24, r1
    1a3e:	0e 94 90 09 	call	0x1320	; 0x1320 <set_sensor_high>
    1a42:	80 91 d5 02 	lds	r24, 0x02D5
    1a46:	81 11       	cpse	r24, r1
    1a48:	0e 94 75 0a 	call	0x14ea	; 0x14ea <set_sensor_low>
    1a4c:	80 91 d4 02 	lds	r24, 0x02D4
    1a50:	81 11       	cpse	r24, r1
    1a52:	0e 94 5a 0b 	call	0x16b4	; 0x16b4 <set_var>
    1a56:	80 91 0d 02 	lds	r24, 0x020D
    1a5a:	81 11       	cpse	r24, r1
    1a5c:	0e 94 7a 0b 	call	0x16f4	; 0x16f4 <receive_tm_msg>
    1a60:	80 91 d1 02 	lds	r24, 0x02D1
    1a64:	81 11       	cpse	r24, r1
    1a66:	0e 94 21 0c 	call	0x1842	; 0x1842 <send_pus_packet_tc>
    1a6a:	80 91 01 01 	lds	r24, 0x0101
    1a6e:	81 11       	cpse	r24, r1
    1a70:	0e 94 db 0c 	call	0x19b6	; 0x19b6 <send_event>
    1a74:	08 95       	ret

00001a76 <__vector_17>:
    1a76:	1f 92       	push	r1
    1a78:	0f 92       	push	r0
    1a7a:	0f b6       	in	r0, 0x3f	; 63
    1a7c:	0f 92       	push	r0
    1a7e:	11 24       	eor	r1, r1
    1a80:	0f 90       	pop	r0
    1a82:	0f be       	out	0x3f, r0	; 63
    1a84:	0f 90       	pop	r0
    1a86:	1f 90       	pop	r1
    1a88:	18 95       	reti

00001a8a <coms_timer_init>:
    1a8a:	16 bc       	out	0x26, r1	; 38
    1a8c:	14 bc       	out	0x24, r1	; 36
    1a8e:	85 e0       	ldi	r24, 0x05	; 5
    1a90:	85 bd       	out	0x25, r24	; 37
    1a92:	81 e0       	ldi	r24, 0x01	; 1
    1a94:	80 93 6e 00 	sts	0x006E, r24
    1a98:	08 95       	ret

00001a9a <main>:
/**************************************************/

volatile uint8_t CTC_flag;	// Variable used in timer.c

int main(void)
{		
    1a9a:	cf 93       	push	r28
    1a9c:	df 93       	push	r29
    1a9e:	00 d0       	rcall	.+0      	; 0x1aa0 <main+0x6>
    1aa0:	00 d0       	rcall	.+0      	; 0x1aa2 <main+0x8>
    1aa2:	cd b7       	in	r28, 0x3d	; 61
    1aa4:	de b7       	in	r29, 0x3e	; 62
	uint8_t high = 0, low = 0;
	
	uint8_t msg = 0x66;
	
	uint8_t* adc_result;
	*adc_result = 0;
    1aa6:	10 92 00 00 	sts	0x0000, r1
}

static void sys_init(void) 
{
	// Make sure sys clock is at least 8MHz
	CLKPR = 0x80;  
    1aaa:	e1 e6       	ldi	r30, 0x61	; 97
    1aac:	f0 e0       	ldi	r31, 0x00	; 0
    1aae:	80 e8       	ldi	r24, 0x80	; 128
    1ab0:	80 83       	st	Z, r24
	CLKPR = 0x00;
    1ab2:	10 82       	st	Z, r1
static void init_global_vars(void)
{	
	uint8_t i;
	if (SELF_ID == 0)
	{
		id_array[0] = SUB0_ID0;
    1ab4:	84 e1       	ldi	r24, 0x14	; 20
    1ab6:	80 93 c0 02 	sts	0x02C0, r24
		id_array[1] = SUB0_ID1;
    1aba:	85 e1       	ldi	r24, 0x15	; 21
    1abc:	80 93 c1 02 	sts	0x02C1, r24
		id_array[2] = SUB0_ID2;
    1ac0:	86 e1       	ldi	r24, 0x16	; 22
    1ac2:	80 93 c2 02 	sts	0x02C2, r24
		id_array[3] = SUB0_ID3;
    1ac6:	87 e1       	ldi	r24, 0x17	; 23
    1ac8:	80 93 c3 02 	sts	0x02C3, r24
		id_array[4] = SUB0_ID4;
    1acc:	88 e1       	ldi	r24, 0x18	; 24
    1ace:	80 93 c4 02 	sts	0x02C4, r24
		id_array[5] = SUB0_ID5;
    1ad2:	89 e1       	ldi	r24, 0x19	; 25
    1ad4:	80 93 c5 02 	sts	0x02C5, r24
    1ad8:	0f 2e       	mov	r0, r31
    1ada:	f8 eb       	ldi	r31, 0xB8	; 184
    1adc:	8f 2e       	mov	r8, r31
    1ade:	f2 e0       	ldi	r31, 0x02	; 2
    1ae0:	9f 2e       	mov	r9, r31
    1ae2:	f0 2d       	mov	r31, r0
    1ae4:	0f 2e       	mov	r0, r31
    1ae6:	f5 ec       	ldi	r31, 0xC5	; 197
    1ae8:	af 2e       	mov	r10, r31
    1aea:	f1 e0       	ldi	r31, 0x01	; 1
    1aec:	bf 2e       	mov	r11, r31
    1aee:	f0 2d       	mov	r31, r0
    1af0:	05 ea       	ldi	r16, 0xA5	; 165
    1af2:	13 e0       	ldi	r17, 0x03	; 3
    1af4:	82 e0       	ldi	r24, 0x02	; 2
    1af6:	91 e0       	ldi	r25, 0x01	; 1
    1af8:	9c 83       	std	Y+4, r25	; 0x04
    1afa:	8b 83       	std	Y+3, r24	; 0x03
    1afc:	68 ef       	ldi	r22, 0xF8	; 248
    1afe:	71 e0       	ldi	r23, 0x01	; 1
    1b00:	49 ee       	ldi	r20, 0xE9	; 233
    1b02:	51 e0       	ldi	r21, 0x01	; 1
    1b04:	20 e0       	ldi	r18, 0x00	; 0
    1b06:	33 e0       	ldi	r19, 0x03	; 3
    1b08:	8c ed       	ldi	r24, 0xDC	; 220
    1b0a:	91 e0       	ldi	r25, 0x01	; 1
    1b0c:	a6 ed       	ldi	r26, 0xD6	; 214
    1b0e:	b2 e0       	ldi	r27, 0x02	; 2
    1b10:	e6 ef       	ldi	r30, 0xF6	; 246
    1b12:	f2 e0       	ldi	r31, 0x02	; 2
    1b14:	fa 83       	std	Y+2, r31	; 0x02
    1b16:	e9 83       	std	Y+1, r30	; 0x01
    1b18:	0f 2e       	mov	r0, r31
    1b1a:	f9 ea       	ldi	r31, 0xA9	; 169
    1b1c:	cf 2e       	mov	r12, r31
    1b1e:	f1 e0       	ldi	r31, 0x01	; 1
    1b20:	df 2e       	mov	r13, r31
    1b22:	f0 2d       	mov	r31, r0
    1b24:	68 94       	set
    1b26:	ff 24       	eor	r15, r15
    1b28:	f3 f8       	bld	r15, 3
		id_array[4] = SUB2_ID4;
		id_array[5] = SUB2_ID5;
	}
	for (i = 0; i < 8; i ++)
	{
		receive_arr[i] = 0;			// Reset the message array to zero after each message.
    1b2a:	f4 01       	movw	r30, r8
    1b2c:	11 92       	st	Z+, r1
    1b2e:	4f 01       	movw	r8, r30
		send_arr[i] = 0;
    1b30:	f5 01       	movw	r30, r10
    1b32:	11 92       	st	Z+, r1
    1b34:	5f 01       	movw	r10, r30
		read_arr[i] = 0;
    1b36:	f8 01       	movw	r30, r16
    1b38:	11 92       	st	Z+, r1
    1b3a:	8f 01       	movw	r16, r30
		write_arr[i] = 0;
    1b3c:	eb 81       	ldd	r30, Y+3	; 0x03
    1b3e:	fc 81       	ldd	r31, Y+4	; 0x04
    1b40:	11 92       	st	Z+, r1
    1b42:	fc 83       	std	Y+4, r31	; 0x04
    1b44:	eb 83       	std	Y+3, r30	; 0x03
		data_req_arr[i] = 0;
    1b46:	fb 01       	movw	r30, r22
    1b48:	11 92       	st	Z+, r1
    1b4a:	bf 01       	movw	r22, r30
		sensh_arr[i] = 0;
    1b4c:	fa 01       	movw	r30, r20
    1b4e:	11 92       	st	Z+, r1
    1b50:	af 01       	movw	r20, r30
		sensl_arr[i] = 0;
    1b52:	f9 01       	movw	r30, r18
    1b54:	11 92       	st	Z+, r1
    1b56:	9f 01       	movw	r18, r30
		setv_arr[i] = 0;
    1b58:	fc 01       	movw	r30, r24
    1b5a:	11 92       	st	Z+, r1
    1b5c:	cf 01       	movw	r24, r30
		new_tm_msg[i] = 0;
    1b5e:	1d 92       	st	X+, r1
		new_tc_msg[i] = 0;
    1b60:	e9 81       	ldd	r30, Y+1	; 0x01
    1b62:	fa 81       	ldd	r31, Y+2	; 0x02
    1b64:	11 92       	st	Z+, r1
    1b66:	fa 83       	std	Y+2, r31	; 0x02
    1b68:	e9 83       	std	Y+1, r30	; 0x01
		event_arr[i] = 0;
    1b6a:	f6 01       	movw	r30, r12
    1b6c:	11 92       	st	Z+, r1
    1b6e:	6f 01       	movw	r12, r30
    1b70:	fa 94       	dec	r15
		id_array[2] = SUB2_ID2;
		id_array[3] = SUB2_ID3;
		id_array[4] = SUB2_ID4;
		id_array[5] = SUB2_ID5;
	}
	for (i = 0; i < 8; i ++)
    1b72:	d9 f6       	brne	.-74     	; 0x1b2a <main+0x90>
    1b74:	e1 e1       	ldi	r30, 0x11	; 17
    1b76:	f2 e0       	ldi	r31, 0x02	; 2
    1b78:	2b e0       	ldi	r18, 0x0B	; 11
    1b7a:	33 e0       	ldi	r19, 0x03	; 3
    1b7c:	4f e0       	ldi	r20, 0x0F	; 15
    1b7e:	51 e0       	ldi	r21, 0x01	; 1
    1b80:	89 ea       	ldi	r24, 0xA9	; 169
    1b82:	92 e0       	ldi	r25, 0x02	; 2
		new_tc_msg[i] = 0;
		event_arr[i] = 0;
	}
	for (i = 0; i < 152; i++)		// Initialize the TM/TC Packet arrays.
	{
		current_tm[i] = 0;
    1b84:	11 92       	st	Z+, r1
		current_tc[i] = 0;
    1b86:	d9 01       	movw	r26, r18
    1b88:	1d 92       	st	X+, r1
    1b8a:	9d 01       	movw	r18, r26
		tm_to_downlink[i] = 0;
    1b8c:	da 01       	movw	r26, r20
    1b8e:	1d 92       	st	X+, r1
    1b90:	ad 01       	movw	r20, r26
		setv_arr[i] = 0;
		new_tm_msg[i] = 0;
		new_tc_msg[i] = 0;
		event_arr[i] = 0;
	}
	for (i = 0; i < 152; i++)		// Initialize the TM/TC Packet arrays.
    1b92:	e8 17       	cp	r30, r24
    1b94:	f9 07       	cpc	r31, r25
    1b96:	b1 f7       	brne	.-20     	; 0x1b84 <main+0xea>
		current_tm[i] = 0;
		current_tc[i] = 0;
		tm_to_downlink[i] = 0;
	}
	/* Initialize Global Command Flags to zero */
	send_now = 0;
    1b98:	10 92 0b 02 	sts	0x020B, r1
	send_hk = 0;
    1b9c:	10 92 b1 02 	sts	0x02B1, r1
	send_data = 0;
    1ba0:	10 92 d3 02 	sts	0x02D3, r1
	read_response = 0;
    1ba4:	10 92 10 02 	sts	0x0210, r1
	write_response = 0;
    1ba8:	10 92 e8 01 	sts	0x01E8, r1
	set_sens_h = 0;
    1bac:	10 92 d0 02 	sts	0x02D0, r1
	set_sens_l = 0;
    1bb0:	10 92 d5 02 	sts	0x02D5, r1
	set_varf = 0;
    1bb4:	10 92 d4 02 	sts	0x02D4, r1
	new_tm_msgf = 0;
    1bb8:	10 92 0d 02 	sts	0x020D, r1
	tm_sequence_count = 0;
    1bbc:	10 92 00 01 	sts	0x0100, r1
	current_tm_fullf = 0;
    1bc0:	10 92 d2 02 	sts	0x02D2, r1
	tc_packet_readyf = 0;
    1bc4:	10 92 d1 02 	sts	0x02D1, r1
	tc_transfer_completef = 0;
    1bc8:	10 92 f5 01 	sts	0x01F5, r1
	start_tc_transferf = 0;
    1bcc:	10 92 f4 01 	sts	0x01F4, r1
	receiving_tmf = 0;
    1bd0:	10 92 f5 02 	sts	0x02F5, r1
	event_readyf = 0;
    1bd4:	10 92 01 01 	sts	0x0101, r1
}

static void io_init(void) 
{	
	// Init PORTB[7:0] // LED port
	DDRB = 0xFE;
    1bd8:	8e ef       	ldi	r24, 0xFE	; 254
    1bda:	84 b9       	out	0x04, r24	; 4
	
	// Init PORTC[7:0] // PORTC[3:2] => RXCAN:TXCAN
	DDRC = 0x11;		// PC4 == SS1 for SPI_TEMP
    1bdc:	81 e1       	ldi	r24, 0x11	; 17
    1bde:	87 b9       	out	0x07, r24	; 7
	PORTC = 0x00;
    1be0:	18 b8       	out	0x08, r1	; 8
	
	// Init PORTD[7:0]
	DDRD = 0x09;		// PD3 is the SS for SPI communications.
    1be2:	89 e0       	ldi	r24, 0x09	; 9
    1be4:	8a b9       	out	0x0a, r24	; 10
	PORTD = 0x01;		// PD3 should only go low during an SPI message.
    1be6:	81 e0       	ldi	r24, 0x01	; 1
    1be8:	8b b9       	out	0x0b, r24	; 11
	
	// Init PORTE[2:0]
	DDRE = 0x00;
    1bea:	1d b8       	out	0x0d, r1	; 13
	PORTE = 0x00;
    1bec:	1e b8       	out	0x0e, r1	; 14
	CLKPR = 0x80;  
	CLKPR = 0x00;
	
	init_global_vars();
	io_init();	
	timer_init();
    1bee:	0e 94 f2 0e 	call	0x1de4	; 0x1de4 <timer_init>
	adc_initialize();
    1bf2:	0e 94 5d 00 	call	0xba	; 0xba <adc_initialize>
	can_init(0);
    1bf6:	80 e0       	ldi	r24, 0x00	; 0
    1bf8:	0e 94 78 01 	call	0x2f0	; 0x2f0 <can_init>
	can_init_mobs();
    1bfc:	0e 94 98 00 	call	0x130	; 0x130 <can_init_mobs>
	spi_initialize_master();
    1c00:	0e 94 8d 0e 	call	0x1d1a	; 0x1d1a <spi_initialize_master>
	
	//enable watchdog timer - 2 second reset time approximate
	//WDTON Fuse has to be 1 for system reset mode - how do you do that?
	wdt_enable(WDTO_2S);
    1c04:	2f e0       	ldi	r18, 0x0F	; 15
    1c06:	88 e1       	ldi	r24, 0x18	; 24
    1c08:	90 e0       	ldi	r25, 0x00	; 0
    1c0a:	0f b6       	in	r0, 0x3f	; 63
    1c0c:	f8 94       	cli
    1c0e:	a8 95       	wdr
    1c10:	80 93 60 00 	sts	0x0060, r24
    1c14:	0f be       	out	0x3f, r0	; 63
    1c16:	20 93 60 00 	sts	0x0060, r18
		pyv = 0x5F;
		pyi = 0x2F;
	}
	
	// Enable global interrupts for Timer execution
	sei();
    1c1a:	78 94       	sei
	
	if (SELF_ID == 0)
	{
		transceiver_initialize();
    1c1c:	0e 94 19 10 	call	0x2032	; 0x2032 <transceiver_initialize>
		coms_timer_init();
    1c20:	0e 94 45 0d 	call	0x1a8a	; 0x1a8a <coms_timer_init>
	}

	SS1_set_high();		// SPI Temp Sensor.
    1c24:	0e 94 bd 0e 	call	0x1d7a	; 0x1d7a <SS1_set_high>
	
	if(SELF_ID != 1)
	{
		PIN_toggle(LED1);
    1c28:	8d e1       	ldi	r24, 0x1D	; 29
    1c2a:	0e 94 20 0e 	call	0x1c40	; 0x1c40 <PIN_toggle>
			// doing anything that is time-intensive (takes more than 10 ms).
			//if(!receiving_tmf)
			//	trans_check();		// Check for incoming packets.	
			//check_obc_alive();
			//test();
			test();
    1c2e:	0e 94 e5 10 	call	0x21ca	; 0x21ca <test>
			delay_ms(100);
    1c32:	84 e6       	ldi	r24, 0x64	; 100
    1c34:	90 e0       	ldi	r25, 0x00	; 0
    1c36:	0e 94 0c 0f 	call	0x1e18	; 0x1e18 <delay_ms>
			run_mppt();
			run_battBalance();
		}
		
		/*	EXECUTE OPERATIONS WHICH WERE REQUESTED */
		run_commands();
    1c3a:	0e 94 fe 0c 	call	0x19fc	; 0x19fc <run_commands>
    1c3e:	f7 cf       	rjmp	.-18     	; 0x1c2e <main+0x194>

00001c40 <PIN_toggle>:
    1c40:	8d 30       	cpi	r24, 0x0D	; 13
    1c42:	29 f4       	brne	.+10     	; 0x1c4e <PIN_toggle+0xe>
    1c44:	2b b1       	in	r18, 0x0b	; 11
    1c46:	90 e2       	ldi	r25, 0x20	; 32
    1c48:	92 27       	eor	r25, r18
    1c4a:	9b b9       	out	0x0b, r25	; 11
    1c4c:	0d c0       	rjmp	.+26     	; 0x1c68 <PIN_toggle+0x28>
    1c4e:	8e 30       	cpi	r24, 0x0E	; 14
    1c50:	29 f4       	brne	.+10     	; 0x1c5c <PIN_toggle+0x1c>
    1c52:	2b b1       	in	r18, 0x0b	; 11
    1c54:	90 e4       	ldi	r25, 0x40	; 64
    1c56:	92 27       	eor	r25, r18
    1c58:	9b b9       	out	0x0b, r25	; 11
    1c5a:	0d c0       	rjmp	.+26     	; 0x1c76 <PIN_toggle+0x36>
    1c5c:	8f 30       	cpi	r24, 0x0F	; 15
    1c5e:	21 f4       	brne	.+8      	; 0x1c68 <PIN_toggle+0x28>
    1c60:	9b b1       	in	r25, 0x0b	; 11
    1c62:	90 58       	subi	r25, 0x80	; 128
    1c64:	9b b9       	out	0x0b, r25	; 11
    1c66:	0e c0       	rjmp	.+28     	; 0x1c84 <PIN_toggle+0x44>
    1c68:	80 31       	cpi	r24, 0x10	; 16
    1c6a:	29 f4       	brne	.+10     	; 0x1c76 <PIN_toggle+0x36>
    1c6c:	25 b1       	in	r18, 0x05	; 5
    1c6e:	94 e0       	ldi	r25, 0x04	; 4
    1c70:	92 27       	eor	r25, r18
    1c72:	95 b9       	out	0x05, r25	; 5
    1c74:	0e c0       	rjmp	.+28     	; 0x1c92 <PIN_toggle+0x52>
    1c76:	81 31       	cpi	r24, 0x11	; 17
    1c78:	29 f4       	brne	.+10     	; 0x1c84 <PIN_toggle+0x44>
    1c7a:	28 b1       	in	r18, 0x08	; 8
    1c7c:	90 e1       	ldi	r25, 0x10	; 16
    1c7e:	92 27       	eor	r25, r18
    1c80:	98 b9       	out	0x08, r25	; 8
    1c82:	0e c0       	rjmp	.+28     	; 0x1ca0 <PIN_toggle+0x60>
    1c84:	82 31       	cpi	r24, 0x12	; 18
    1c86:	29 f4       	brne	.+10     	; 0x1c92 <PIN_toggle+0x52>
    1c88:	28 b1       	in	r18, 0x08	; 8
    1c8a:	90 e2       	ldi	r25, 0x20	; 32
    1c8c:	92 27       	eor	r25, r18
    1c8e:	98 b9       	out	0x08, r25	; 8
    1c90:	0e c0       	rjmp	.+28     	; 0x1cae <PIN_toggle+0x6e>
    1c92:	86 31       	cpi	r24, 0x16	; 22
    1c94:	29 f4       	brne	.+10     	; 0x1ca0 <PIN_toggle+0x60>
    1c96:	28 b1       	in	r18, 0x08	; 8
    1c98:	90 e4       	ldi	r25, 0x40	; 64
    1c9a:	92 27       	eor	r25, r18
    1c9c:	98 b9       	out	0x08, r25	; 8
    1c9e:	0e c0       	rjmp	.+28     	; 0x1cbc <PIN_toggle+0x7c>
    1ca0:	87 31       	cpi	r24, 0x17	; 23
    1ca2:	29 f4       	brne	.+10     	; 0x1cae <PIN_toggle+0x6e>
    1ca4:	25 b1       	in	r18, 0x05	; 5
    1ca6:	98 e0       	ldi	r25, 0x08	; 8
    1ca8:	92 27       	eor	r25, r18
    1caa:	95 b9       	out	0x05, r25	; 5
    1cac:	0d c0       	rjmp	.+26     	; 0x1cc8 <PIN_toggle+0x88>
    1cae:	88 31       	cpi	r24, 0x18	; 24
    1cb0:	29 f4       	brne	.+10     	; 0x1cbc <PIN_toggle+0x7c>
    1cb2:	25 b1       	in	r18, 0x05	; 5
    1cb4:	90 e1       	ldi	r25, 0x10	; 16
    1cb6:	92 27       	eor	r25, r18
    1cb8:	95 b9       	out	0x05, r25	; 5
    1cba:	0d c0       	rjmp	.+26     	; 0x1cd6 <PIN_toggle+0x96>
    1cbc:	89 31       	cpi	r24, 0x19	; 25
    1cbe:	21 f4       	brne	.+8      	; 0x1cc8 <PIN_toggle+0x88>
    1cc0:	98 b1       	in	r25, 0x08	; 8
    1cc2:	90 58       	subi	r25, 0x80	; 128
    1cc4:	98 b9       	out	0x08, r25	; 8
    1cc6:	0e c0       	rjmp	.+28     	; 0x1ce4 <PIN_toggle+0xa4>
    1cc8:	8a 31       	cpi	r24, 0x1A	; 26
    1cca:	29 f4       	brne	.+10     	; 0x1cd6 <PIN_toggle+0x96>
    1ccc:	25 b1       	in	r18, 0x05	; 5
    1cce:	90 e2       	ldi	r25, 0x20	; 32
    1cd0:	92 27       	eor	r25, r18
    1cd2:	95 b9       	out	0x05, r25	; 5
    1cd4:	0d c0       	rjmp	.+26     	; 0x1cf0 <PIN_toggle+0xb0>
    1cd6:	8b 31       	cpi	r24, 0x1B	; 27
    1cd8:	29 f4       	brne	.+10     	; 0x1ce4 <PIN_toggle+0xa4>
    1cda:	25 b1       	in	r18, 0x05	; 5
    1cdc:	90 e4       	ldi	r25, 0x40	; 64
    1cde:	92 27       	eor	r25, r18
    1ce0:	95 b9       	out	0x05, r25	; 5
    1ce2:	0d c0       	rjmp	.+26     	; 0x1cfe <PIN_toggle+0xbe>
    1ce4:	8c 31       	cpi	r24, 0x1C	; 28
    1ce6:	21 f4       	brne	.+8      	; 0x1cf0 <PIN_toggle+0xb0>
    1ce8:	95 b1       	in	r25, 0x05	; 5
    1cea:	90 58       	subi	r25, 0x80	; 128
    1cec:	95 b9       	out	0x05, r25	; 5
    1cee:	0e c0       	rjmp	.+28     	; 0x1d0c <PIN_toggle+0xcc>
    1cf0:	8d 31       	cpi	r24, 0x1D	; 29
    1cf2:	29 f4       	brne	.+10     	; 0x1cfe <PIN_toggle+0xbe>
    1cf4:	9b b1       	in	r25, 0x0b	; 11
    1cf6:	81 e0       	ldi	r24, 0x01	; 1
    1cf8:	89 27       	eor	r24, r25
    1cfa:	8b b9       	out	0x0b, r24	; 11
    1cfc:	08 95       	ret
    1cfe:	8e 31       	cpi	r24, 0x1E	; 30
    1d00:	29 f4       	brne	.+10     	; 0x1d0c <PIN_toggle+0xcc>
    1d02:	98 b1       	in	r25, 0x08	; 8
    1d04:	81 e0       	ldi	r24, 0x01	; 1
    1d06:	89 27       	eor	r24, r25
    1d08:	88 b9       	out	0x08, r24	; 8
    1d0a:	08 95       	ret
    1d0c:	80 32       	cpi	r24, 0x20	; 32
    1d0e:	21 f4       	brne	.+8      	; 0x1d18 <PIN_toggle+0xd8>
    1d10:	9b b1       	in	r25, 0x0b	; 11
    1d12:	82 e0       	ldi	r24, 0x02	; 2
    1d14:	89 27       	eor	r24, r25
    1d16:	8b b9       	out	0x0b, r24	; 11
    1d18:	08 95       	ret

00001d1a <spi_initialize_master>:
    1d1a:	85 b7       	in	r24, 0x35	; 53
    1d1c:	8f 77       	andi	r24, 0x7F	; 127
    1d1e:	85 bf       	out	0x35, r24	; 53
    1d20:	83 e5       	ldi	r24, 0x53	; 83
    1d22:	8c bd       	out	0x2c, r24	; 44
    1d24:	08 95       	ret

00001d26 <spi_transfer>:
    1d26:	8e bd       	out	0x2e, r24	; 46
    1d28:	0d b4       	in	r0, 0x2d	; 45
    1d2a:	07 fc       	sbrc	r0, 7
    1d2c:	04 c0       	rjmp	.+8      	; 0x1d36 <spi_transfer+0x10>
    1d2e:	89 ee       	ldi	r24, 0xE9	; 233
    1d30:	81 50       	subi	r24, 0x01	; 1
    1d32:	f1 f7       	brne	.-4      	; 0x1d30 <spi_transfer+0xa>
    1d34:	08 95       	ret
    1d36:	8a e0       	ldi	r24, 0x0A	; 10
    1d38:	0e 94 22 0f 	call	0x1e44	; 0x1e44 <delay_cycles>
    1d3c:	8e b5       	in	r24, 0x2e	; 46
    1d3e:	08 95       	ret

00001d40 <SS_set_high>:
    1d40:	81 e0       	ldi	r24, 0x01	; 1
    1d42:	90 e0       	ldi	r25, 0x00	; 0
    1d44:	0e 94 fa 0e 	call	0x1df4	; 0x1df4 <delay_us>
    1d48:	08 95       	ret

00001d4a <spi_transfer2>:
    1d4a:	cf 93       	push	r28
    1d4c:	5b 98       	cbi	0x0b, 3	; 11
    1d4e:	8e bd       	out	0x2e, r24	; 46
    1d50:	0d b4       	in	r0, 0x2d	; 45
    1d52:	07 fc       	sbrc	r0, 7
    1d54:	06 c0       	rjmp	.+12     	; 0x1d62 <spi_transfer2+0x18>
    1d56:	c9 ee       	ldi	r28, 0xE9	; 233
    1d58:	c1 50       	subi	r28, 0x01	; 1
    1d5a:	f1 f7       	brne	.-4      	; 0x1d58 <spi_transfer2+0xe>
    1d5c:	0e 94 a0 0e 	call	0x1d40	; 0x1d40 <SS_set_high>
    1d60:	09 c0       	rjmp	.+18     	; 0x1d74 <spi_transfer2+0x2a>
    1d62:	87 e0       	ldi	r24, 0x07	; 7
    1d64:	0e 94 22 0f 	call	0x1e44	; 0x1e44 <delay_cycles>
    1d68:	0e 94 a0 0e 	call	0x1d40	; 0x1d40 <SS_set_high>
    1d6c:	8a e0       	ldi	r24, 0x0A	; 10
    1d6e:	0e 94 22 0f 	call	0x1e44	; 0x1e44 <delay_cycles>
    1d72:	ce b5       	in	r28, 0x2e	; 46
    1d74:	8c 2f       	mov	r24, r28
    1d76:	cf 91       	pop	r28
    1d78:	08 95       	ret

00001d7a <SS1_set_high>:
    1d7a:	44 9a       	sbi	0x08, 4	; 8
    1d7c:	08 95       	ret

00001d7e <SS_set_low>:
    1d7e:	81 e0       	ldi	r24, 0x01	; 1
    1d80:	90 e0       	ldi	r25, 0x00	; 0
    1d82:	0e 94 fa 0e 	call	0x1df4	; 0x1df4 <delay_us>
    1d86:	08 95       	ret

00001d88 <SS1_set_low>:
    1d88:	44 98       	cbi	0x08, 4	; 8
    1d8a:	08 95       	ret

00001d8c <spi_retrieve_temp>:
    1d8c:	0f 93       	push	r16
    1d8e:	1f 93       	push	r17
    1d90:	cf 93       	push	r28
    1d92:	df 93       	push	r29
    1d94:	8c 01       	movw	r16, r24
    1d96:	eb 01       	movw	r28, r22
    1d98:	0e 94 c4 0e 	call	0x1d88	; 0x1d88 <SS1_set_low>
    1d9c:	1e bc       	out	0x2e, r1	; 46
    1d9e:	80 e8       	ldi	r24, 0x80	; 128
    1da0:	90 e0       	ldi	r25, 0x00	; 0
    1da2:	0e 94 0c 0f 	call	0x1e18	; 0x1e18 <delay_ms>
    1da6:	8e b5       	in	r24, 0x2e	; 46
    1da8:	f8 01       	movw	r30, r16
    1daa:	80 83       	st	Z, r24
    1dac:	80 e8       	ldi	r24, 0x80	; 128
    1dae:	90 e0       	ldi	r25, 0x00	; 0
    1db0:	0e 94 0c 0f 	call	0x1e18	; 0x1e18 <delay_ms>
    1db4:	8e b5       	in	r24, 0x2e	; 46
    1db6:	88 83       	st	Y, r24
    1db8:	0e 94 bd 0e 	call	0x1d7a	; 0x1d7a <SS1_set_high>
    1dbc:	df 91       	pop	r29
    1dbe:	cf 91       	pop	r28
    1dc0:	1f 91       	pop	r17
    1dc2:	0f 91       	pop	r16
    1dc4:	08 95       	ret

00001dc6 <__vector_12>:
    1dc6:	1f 92       	push	r1
    1dc8:	0f 92       	push	r0
    1dca:	0f b6       	in	r0, 0x3f	; 63
    1dcc:	0f 92       	push	r0
    1dce:	11 24       	eor	r1, r1
    1dd0:	8f 93       	push	r24
    1dd2:	81 e0       	ldi	r24, 0x01	; 1
    1dd4:	80 93 b4 03 	sts	0x03B4, r24
    1dd8:	8f 91       	pop	r24
    1dda:	0f 90       	pop	r0
    1ddc:	0f be       	out	0x3f, r0	; 63
    1dde:	0f 90       	pop	r0
    1de0:	1f 90       	pop	r1
    1de2:	18 95       	reti

00001de4 <timer_init>:
    1de4:	10 92 6f 00 	sts	0x006F, r1
    1de8:	10 92 80 00 	sts	0x0080, r1
    1dec:	8a e0       	ldi	r24, 0x0A	; 10
    1dee:	80 93 81 00 	sts	0x0081, r24
    1df2:	08 95       	ret

00001df4 <delay_us>:
    1df4:	10 92 b4 03 	sts	0x03B4, r1
    1df8:	10 92 85 00 	sts	0x0085, r1
    1dfc:	10 92 84 00 	sts	0x0084, r1
    1e00:	90 93 89 00 	sts	0x0089, r25
    1e04:	80 93 88 00 	sts	0x0088, r24
    1e08:	82 e0       	ldi	r24, 0x02	; 2
    1e0a:	80 93 6f 00 	sts	0x006F, r24
    1e0e:	80 91 b4 03 	lds	r24, 0x03B4
    1e12:	88 23       	and	r24, r24
    1e14:	e1 f3       	breq	.-8      	; 0x1e0e <delay_us+0x1a>
    1e16:	08 95       	ret

00001e18 <delay_ms>:
    1e18:	0f 93       	push	r16
    1e1a:	1f 93       	push	r17
    1e1c:	cf 93       	push	r28
    1e1e:	df 93       	push	r29
    1e20:	8c 01       	movw	r16, r24
    1e22:	00 97       	sbiw	r24, 0x00	; 0
    1e24:	51 f0       	breq	.+20     	; 0x1e3a <delay_ms+0x22>
    1e26:	c0 e0       	ldi	r28, 0x00	; 0
    1e28:	d0 e0       	ldi	r29, 0x00	; 0
    1e2a:	88 ee       	ldi	r24, 0xE8	; 232
    1e2c:	93 e0       	ldi	r25, 0x03	; 3
    1e2e:	0e 94 fa 0e 	call	0x1df4	; 0x1df4 <delay_us>
    1e32:	21 96       	adiw	r28, 0x01	; 1
    1e34:	c0 17       	cp	r28, r16
    1e36:	d1 07       	cpc	r29, r17
    1e38:	c1 f7       	brne	.-16     	; 0x1e2a <delay_ms+0x12>
    1e3a:	df 91       	pop	r29
    1e3c:	cf 91       	pop	r28
    1e3e:	1f 91       	pop	r17
    1e40:	0f 91       	pop	r16
    1e42:	08 95       	ret

00001e44 <delay_cycles>:
    1e44:	88 23       	and	r24, r24
    1e46:	21 f0       	breq	.+8      	; 0x1e50 <delay_cycles+0xc>
    1e48:	90 e0       	ldi	r25, 0x00	; 0
    1e4a:	9f 5f       	subi	r25, 0xFF	; 255
    1e4c:	98 13       	cpse	r25, r24
    1e4e:	fd cf       	rjmp	.-6      	; 0x1e4a <delay_cycles+0x6>
    1e50:	08 95       	ret

00001e52 <reg_read>:
/*		address on the CC1120 transceiver (extended address)		    */
/*																		*/
/************************************************************************/

uint8_t reg_read(uint8_t addr)
{
    1e52:	cf 93       	push	r28
    1e54:	c8 2f       	mov	r28, r24
	uint8_t addr_new, msg;
	addr_new = addr + 0b10000000;

	SS_set_low();
    1e56:	0e 94 bf 0e 	call	0x1d7e	; 0x1d7e <SS_set_low>
	msg = spi_transfer(addr_new);		// Send the desired address
    1e5a:	80 e8       	ldi	r24, 0x80	; 128
    1e5c:	8c 0f       	add	r24, r28
    1e5e:	0e 94 93 0e 	call	0x1d26	; 0x1d26 <spi_transfer>
	delay_us(1);
    1e62:	81 e0       	ldi	r24, 0x01	; 1
    1e64:	90 e0       	ldi	r25, 0x00	; 0
    1e66:	0e 94 fa 0e 	call	0x1df4	; 0x1df4 <delay_us>
	msg = spi_transfer(0x00);
    1e6a:	80 e0       	ldi	r24, 0x00	; 0
    1e6c:	0e 94 93 0e 	call	0x1d26	; 0x1d26 <spi_transfer>
    1e70:	c8 2f       	mov	r28, r24

	SS_set_high();
    1e72:	0e 94 a0 0e 	call	0x1d40	; 0x1d40 <SS_set_high>
	
	delay_ms(1);
    1e76:	81 e0       	ldi	r24, 0x01	; 1
    1e78:	90 e0       	ldi	r25, 0x00	; 0
    1e7a:	0e 94 0c 0f 	call	0x1e18	; 0x1e18 <delay_ms>
	
	return msg;
}
    1e7e:	8c 2f       	mov	r24, r28
    1e80:	cf 91       	pop	r28
    1e82:	08 95       	ret

00001e84 <reg_write>:
/*		address on the CC1120 transceiver (non-extended address)		*/
/*																		*/
/************************************************************************/

void reg_write(uint8_t addr, uint8_t data)		// Doesn't need to return anything.
{
    1e84:	cf 93       	push	r28
    1e86:	df 93       	push	r29
    1e88:	d8 2f       	mov	r29, r24
    1e8a:	c6 2f       	mov	r28, r22
	uint8_t msg, check, i;
	
	SS_set_low();
    1e8c:	0e 94 bf 0e 	call	0x1d7e	; 0x1d7e <SS_set_low>
	msg = spi_transfer(addr);		// Send the desired address
    1e90:	8d 2f       	mov	r24, r29
    1e92:	0e 94 93 0e 	call	0x1d26	; 0x1d26 <spi_transfer>
	delay_us(1);
    1e96:	81 e0       	ldi	r24, 0x01	; 1
    1e98:	90 e0       	ldi	r25, 0x00	; 0
    1e9a:	0e 94 fa 0e 	call	0x1df4	; 0x1df4 <delay_us>
	msg = spi_transfer(data);		// Send the desired data
    1e9e:	8c 2f       	mov	r24, r28
    1ea0:	0e 94 93 0e 	call	0x1d26	; 0x1d26 <spi_transfer>
	SS_set_high();
    1ea4:	0e 94 a0 0e 	call	0x1d40	; 0x1d40 <SS_set_high>
	
	delay_ms(1);
    1ea8:	81 e0       	ldi	r24, 0x01	; 1
    1eaa:	90 e0       	ldi	r25, 0x00	; 0
    1eac:	0e 94 0c 0f 	call	0x1e18	; 0x1e18 <delay_ms>

	return;
}
    1eb0:	df 91       	pop	r29
    1eb2:	cf 91       	pop	r28
    1eb4:	08 95       	ret

00001eb6 <reg_read2F>:
/*		address on the CC1120 transceiver (extended address)		    */
/*																		*/
/************************************************************************/

uint8_t reg_read2F(uint8_t addr)
{
    1eb6:	cf 93       	push	r28
    1eb8:	c8 2f       	mov	r28, r24
	uint8_t msg;
	msg = 0b10101111;
	
	SS_set_low();
    1eba:	0e 94 bf 0e 	call	0x1d7e	; 0x1d7e <SS_set_low>
	msg = spi_transfer(msg);
    1ebe:	8f ea       	ldi	r24, 0xAF	; 175
    1ec0:	0e 94 93 0e 	call	0x1d26	; 0x1d26 <spi_transfer>
	delay_us(1);
    1ec4:	81 e0       	ldi	r24, 0x01	; 1
    1ec6:	90 e0       	ldi	r25, 0x00	; 0
    1ec8:	0e 94 fa 0e 	call	0x1df4	; 0x1df4 <delay_us>
	msg = spi_transfer(addr);		// Send the desired address
    1ecc:	8c 2f       	mov	r24, r28
    1ece:	0e 94 93 0e 	call	0x1d26	; 0x1d26 <spi_transfer>
	delay_us(1);
    1ed2:	81 e0       	ldi	r24, 0x01	; 1
    1ed4:	90 e0       	ldi	r25, 0x00	; 0
    1ed6:	0e 94 fa 0e 	call	0x1df4	; 0x1df4 <delay_us>
	msg = spi_transfer(0x00);
    1eda:	80 e0       	ldi	r24, 0x00	; 0
    1edc:	0e 94 93 0e 	call	0x1d26	; 0x1d26 <spi_transfer>
    1ee0:	c8 2f       	mov	r28, r24
	SS_set_high();
    1ee2:	0e 94 a0 0e 	call	0x1d40	; 0x1d40 <SS_set_high>
	delay_ms(1);
    1ee6:	81 e0       	ldi	r24, 0x01	; 1
    1ee8:	90 e0       	ldi	r25, 0x00	; 0
    1eea:	0e 94 0c 0f 	call	0x1e18	; 0x1e18 <delay_ms>
	return msg;
}
    1eee:	8c 2f       	mov	r24, r28
    1ef0:	cf 91       	pop	r28
    1ef2:	08 95       	ret

00001ef4 <cmd_str>:
/*	CC1120.																*/
/*																		*/
/************************************************************************/

uint8_t cmd_str(uint8_t addr)
{
    1ef4:	cf 93       	push	r28
	uint8_t msg;
	
	msg = spi_transfer2(addr);
    1ef6:	0e 94 a5 0e 	call	0x1d4a	; 0x1d4a <spi_transfer2>
    1efa:	c8 2f       	mov	r28, r24
	
	delay_us(1);
    1efc:	81 e0       	ldi	r24, 0x01	; 1
    1efe:	90 e0       	ldi	r25, 0x00	; 0
    1f00:	0e 94 fa 0e 	call	0x1df4	; 0x1df4 <delay_us>
	return msg;
}
    1f04:	8c 2f       	mov	r24, r28
    1f06:	cf 91       	pop	r28
    1f08:	08 95       	ret

00001f0a <reg_write2F>:
/*		address on the CC1120 transceiver (extended address)		    */
/*																		*/
/************************************************************************/

void reg_write2F(uint8_t addr, uint8_t data)		// Doesn't need to return anything.
{
    1f0a:	cf 93       	push	r28
    1f0c:	df 93       	push	r29
    1f0e:	d8 2f       	mov	r29, r24
    1f10:	c6 2f       	mov	r28, r22
	cmd_str(SNOP);
    1f12:	8d e3       	ldi	r24, 0x3D	; 61
    1f14:	0e 94 7a 0f 	call	0x1ef4	; 0x1ef4 <cmd_str>
	uint8_t msg, i, check;
	msg = 0b00101111;
	
	SS_set_low();
    1f18:	0e 94 bf 0e 	call	0x1d7e	; 0x1d7e <SS_set_low>
	spi_transfer(msg);
    1f1c:	8f e2       	ldi	r24, 0x2F	; 47
    1f1e:	0e 94 93 0e 	call	0x1d26	; 0x1d26 <spi_transfer>
	delay_us(1);
    1f22:	81 e0       	ldi	r24, 0x01	; 1
    1f24:	90 e0       	ldi	r25, 0x00	; 0
    1f26:	0e 94 fa 0e 	call	0x1df4	; 0x1df4 <delay_us>
	msg = spi_transfer(addr);		// Send the desired address
    1f2a:	8d 2f       	mov	r24, r29
    1f2c:	0e 94 93 0e 	call	0x1d26	; 0x1d26 <spi_transfer>
	delay_us(1);
    1f30:	81 e0       	ldi	r24, 0x01	; 1
    1f32:	90 e0       	ldi	r25, 0x00	; 0
    1f34:	0e 94 fa 0e 	call	0x1df4	; 0x1df4 <delay_us>
	msg = spi_transfer(data);		// Send the desired data
    1f38:	8c 2f       	mov	r24, r28
    1f3a:	0e 94 93 0e 	call	0x1d26	; 0x1d26 <spi_transfer>
	SS_set_high();
    1f3e:	0e 94 a0 0e 	call	0x1d40	; 0x1d40 <SS_set_high>
	delay_ms(1);
    1f42:	81 e0       	ldi	r24, 0x01	; 1
    1f44:	90 e0       	ldi	r25, 0x00	; 0
    1f46:	0e 94 0c 0f 	call	0x1e18	; 0x1e18 <delay_ms>

	return;
}
    1f4a:	df 91       	pop	r29
    1f4c:	cf 91       	pop	r28
    1f4e:	08 95       	ret

00001f50 <dir_FIFO_write>:
/*	on the CC1120's FIFO and a byte of data which is written to the FIFO*/
/*																		*/
/************************************************************************/

void dir_FIFO_write(uint8_t addr, uint8_t data)
{
    1f50:	cf 93       	push	r28
    1f52:	df 93       	push	r29
    1f54:	d8 2f       	mov	r29, r24
    1f56:	c6 2f       	mov	r28, r22
	cmd_str(SNOP);
    1f58:	8d e3       	ldi	r24, 0x3D	; 61
    1f5a:	0e 94 7a 0f 	call	0x1ef4	; 0x1ef4 <cmd_str>
	uint8_t msg;
	msg = 0b00111110;
	
	SS_set_low();
    1f5e:	0e 94 bf 0e 	call	0x1d7e	; 0x1d7e <SS_set_low>
	spi_transfer(msg);
    1f62:	8e e3       	ldi	r24, 0x3E	; 62
    1f64:	0e 94 93 0e 	call	0x1d26	; 0x1d26 <spi_transfer>
	delay_us(1);
    1f68:	81 e0       	ldi	r24, 0x01	; 1
    1f6a:	90 e0       	ldi	r25, 0x00	; 0
    1f6c:	0e 94 fa 0e 	call	0x1df4	; 0x1df4 <delay_us>
	msg = spi_transfer(addr);		// Send the desired address
    1f70:	8d 2f       	mov	r24, r29
    1f72:	0e 94 93 0e 	call	0x1d26	; 0x1d26 <spi_transfer>
	delay_us(1);
    1f76:	81 e0       	ldi	r24, 0x01	; 1
    1f78:	90 e0       	ldi	r25, 0x00	; 0
    1f7a:	0e 94 fa 0e 	call	0x1df4	; 0x1df4 <delay_us>
	msg = spi_transfer(data);		// Send the desired data
    1f7e:	8c 2f       	mov	r24, r28
    1f80:	0e 94 93 0e 	call	0x1d26	; 0x1d26 <spi_transfer>
	SS_set_high();
    1f84:	0e 94 a0 0e 	call	0x1d40	; 0x1d40 <SS_set_high>
	delay_ms(1);
    1f88:	81 e0       	ldi	r24, 0x01	; 1
    1f8a:	90 e0       	ldi	r25, 0x00	; 0
    1f8c:	0e 94 0c 0f 	call	0x1e18	; 0x1e18 <delay_ms>
	
	return;
}
    1f90:	df 91       	pop	r29
    1f92:	cf 91       	pop	r28
    1f94:	08 95       	ret

00001f96 <reg_write_bit>:
/*		address on the CC1120 transceiver (non-extended address)		*/
/*																		*/
/************************************************************************/

void reg_write_bit(uint8_t reg, uint8_t n, uint8_t data)
{
    1f96:	1f 93       	push	r17
    1f98:	cf 93       	push	r28
    1f9a:	df 93       	push	r29
    1f9c:	c8 2f       	mov	r28, r24
    1f9e:	d6 2f       	mov	r29, r22
    1fa0:	14 2f       	mov	r17, r20
	uint8_t msg, temp;
	msg = reg_read(reg);
    1fa2:	0e 94 29 0f 	call	0x1e52	; 0x1e52 <reg_read>
	if(!data)
    1fa6:	11 11       	cpse	r17, r1
    1fa8:	0c c0       	rjmp	.+24     	; 0x1fc2 <reg_write_bit+0x2c>
	{
		temp = ~(1 << n);
    1faa:	e1 e0       	ldi	r30, 0x01	; 1
    1fac:	f0 e0       	ldi	r31, 0x00	; 0
    1fae:	af 01       	movw	r20, r30
    1fb0:	02 c0       	rjmp	.+4      	; 0x1fb6 <reg_write_bit+0x20>
    1fb2:	44 0f       	add	r20, r20
    1fb4:	55 1f       	adc	r21, r21
    1fb6:	da 95       	dec	r29
    1fb8:	e2 f7       	brpl	.-8      	; 0x1fb2 <reg_write_bit+0x1c>
    1fba:	40 95       	com	r20
		msg = temp & msg;
    1fbc:	68 2f       	mov	r22, r24
    1fbe:	64 23       	and	r22, r20
    1fc0:	0a c0       	rjmp	.+20     	; 0x1fd6 <reg_write_bit+0x40>
	}
	else
	{
		temp = 1 << n;
    1fc2:	41 e0       	ldi	r20, 0x01	; 1
    1fc4:	50 e0       	ldi	r21, 0x00	; 0
    1fc6:	9a 01       	movw	r18, r20
    1fc8:	02 c0       	rjmp	.+4      	; 0x1fce <reg_write_bit+0x38>
    1fca:	22 0f       	add	r18, r18
    1fcc:	33 1f       	adc	r19, r19
    1fce:	da 95       	dec	r29
    1fd0:	e2 f7       	brpl	.-8      	; 0x1fca <reg_write_bit+0x34>
		msg = temp | msg;
    1fd2:	68 2f       	mov	r22, r24
    1fd4:	62 2b       	or	r22, r18
	}
	reg_write(reg, msg);
    1fd6:	8c 2f       	mov	r24, r28
    1fd8:	0e 94 42 0f 	call	0x1e84	; 0x1e84 <reg_write>
	return;
}
    1fdc:	df 91       	pop	r29
    1fde:	cf 91       	pop	r28
    1fe0:	1f 91       	pop	r17
    1fe2:	08 95       	ret

00001fe4 <reg_write_bit2F>:
/*		address on the CC1120 transceiver (extended address)			*/
/*																		*/
/************************************************************************/

void reg_write_bit2F(uint8_t reg, uint8_t n, uint8_t data)
{
    1fe4:	1f 93       	push	r17
    1fe6:	cf 93       	push	r28
    1fe8:	df 93       	push	r29
    1fea:	c8 2f       	mov	r28, r24
    1fec:	d6 2f       	mov	r29, r22
    1fee:	14 2f       	mov	r17, r20
	uint8_t msg, temp;
	msg = reg_read2F(reg);
    1ff0:	0e 94 5b 0f 	call	0x1eb6	; 0x1eb6 <reg_read2F>
	if(!data)
    1ff4:	11 11       	cpse	r17, r1
    1ff6:	0c c0       	rjmp	.+24     	; 0x2010 <reg_write_bit2F+0x2c>
	{
		temp = ~(1 << n);
    1ff8:	e1 e0       	ldi	r30, 0x01	; 1
    1ffa:	f0 e0       	ldi	r31, 0x00	; 0
    1ffc:	af 01       	movw	r20, r30
    1ffe:	02 c0       	rjmp	.+4      	; 0x2004 <reg_write_bit2F+0x20>
    2000:	44 0f       	add	r20, r20
    2002:	55 1f       	adc	r21, r21
    2004:	da 95       	dec	r29
    2006:	e2 f7       	brpl	.-8      	; 0x2000 <reg_write_bit2F+0x1c>
    2008:	40 95       	com	r20
		msg = temp & msg;
    200a:	68 2f       	mov	r22, r24
    200c:	64 23       	and	r22, r20
    200e:	0a c0       	rjmp	.+20     	; 0x2024 <reg_write_bit2F+0x40>
	}
	else
	{
		temp = 1 << n;
    2010:	41 e0       	ldi	r20, 0x01	; 1
    2012:	50 e0       	ldi	r21, 0x00	; 0
    2014:	9a 01       	movw	r18, r20
    2016:	02 c0       	rjmp	.+4      	; 0x201c <reg_write_bit2F+0x38>
    2018:	22 0f       	add	r18, r18
    201a:	33 1f       	adc	r19, r19
    201c:	da 95       	dec	r29
    201e:	e2 f7       	brpl	.-8      	; 0x2018 <reg_write_bit2F+0x34>
		msg = temp | msg;
    2020:	68 2f       	mov	r22, r24
    2022:	62 2b       	or	r22, r18
	}
	reg_write2F(reg, msg);
    2024:	8c 2f       	mov	r24, r28
    2026:	0e 94 85 0f 	call	0x1f0a	; 0x1f0a <reg_write2F>
	return;
}
    202a:	df 91       	pop	r29
    202c:	cf 91       	pop	r28
    202e:	1f 91       	pop	r17
    2030:	08 95       	ret

00002032 <transceiver_initialize>:

#include "trans_lib.h"
int message_counter=0;
uint8_t message[128];
void transceiver_initialize(void)
{
    2032:	25 eb       	ldi	r18, 0xB5	; 181
    2034:	33 e0       	ldi	r19, 0x03	; 3
    2036:	85 e3       	ldi	r24, 0x35	; 53
    2038:	94 e0       	ldi	r25, 0x04	; 4
    203a:	f9 01       	movw	r30, r18
    203c:	4e 2f       	mov	r20, r30
    203e:	42 1b       	sub	r20, r18
	for(uint8_t i=0;i<128;i++)
		message[i]=i;
    2040:	41 93       	st	Z+, r20
#include "trans_lib.h"
int message_counter=0;
uint8_t message[128];
void transceiver_initialize(void)
{
	for(uint8_t i=0;i<128;i++)
    2042:	e8 17       	cp	r30, r24
    2044:	f9 07       	cpc	r31, r25
    2046:	d1 f7       	brne	.-12     	; 0x203c <transceiver_initialize+0xa>
void set_CSn(uint8_t state)
{
	if(state)
		SS_set_high();
	else
		SS_set_low();
    2048:	0e 94 bf 0e 	call	0x1d7e	; 0x1d7e <SS_set_low>
	set_CSn(0);
	
	// Don't need the while loop that was here.
	  
	//RESET 
    cmd_str(SRES);             //SRES                  reset chip
    204c:	80 e3       	ldi	r24, 0x30	; 48
    204e:	0e 94 7a 0f 	call	0x1ef4	; 0x1ef4 <cmd_str>
      
    //Reset RX FIFO
    cmd_str(SFRX);             //SFRX                  flush RX FIFO
    2052:	8a e3       	ldi	r24, 0x3A	; 58
    2054:	0e 94 7a 0f 	call	0x1ef4	; 0x1ef4 <cmd_str>
      
    //Reset TX FIFO
    cmd_str(SFTX);             //SFTX                  flush TX FIFO
    2058:	8b e3       	ldi	r24, 0x3B	; 59
    205a:	0e 94 7a 0f 	call	0x1ef4	; 0x1ef4 <cmd_str>

	//**************SET UP RX****************//
  
	//high performance settings
	reg_write2F(0x12, 0x00);          //FS_DIG1: 0x00         Frequency Synthesizer Digital Reg. 1
    205e:	60 e0       	ldi	r22, 0x00	; 0
    2060:	82 e1       	ldi	r24, 0x12	; 18
    2062:	0e 94 85 0f 	call	0x1f0a	; 0x1f0a <reg_write2F>
	reg_write2F(0x13, 0x5F);          //FS_DIG0: 0x5F         Frequency Synthesizer Digital Reg. 0
    2066:	6f e5       	ldi	r22, 0x5F	; 95
    2068:	83 e1       	ldi	r24, 0x13	; 19
    206a:	0e 94 85 0f 	call	0x1f0a	; 0x1f0a <reg_write2F>
	reg_write2F(0x16, 0x40);          //FS_CAL1: 0x40         Frequency Synthesizer Calibration Reg. 1
    206e:	60 e4       	ldi	r22, 0x40	; 64
    2070:	86 e1       	ldi	r24, 0x16	; 22
    2072:	0e 94 85 0f 	call	0x1f0a	; 0x1f0a <reg_write2F>
	reg_write2F(0x17, 0x0E);          //FS_CAL0: 0x0E         Frequency Synthesizer Calibration Reg. 0
    2076:	6e e0       	ldi	r22, 0x0E	; 14
    2078:	87 e1       	ldi	r24, 0x17	; 23
    207a:	0e 94 85 0f 	call	0x1f0a	; 0x1f0a <reg_write2F>
	reg_write2F(0x19, 0x03);          //FS_DIVTWO: 0x03       Frequency Synthesizer Divide by 2
    207e:	63 e0       	ldi	r22, 0x03	; 3
    2080:	89 e1       	ldi	r24, 0x19	; 25
    2082:	0e 94 85 0f 	call	0x1f0a	; 0x1f0a <reg_write2F>
	reg_write2F(0x1B, 0x33);          //FS_DSM0: 0x33         FS Digital Synthesizer Module Configuration Reg. 0
    2086:	63 e3       	ldi	r22, 0x33	; 51
    2088:	8b e1       	ldi	r24, 0x1B	; 27
    208a:	0e 94 85 0f 	call	0x1f0a	; 0x1f0a <reg_write2F>
	reg_write2F(0x1D, 0x17);          //FS_DVCO: 0x17         Frequency Synthesizer Divider Chain Configuration ..
    208e:	67 e1       	ldi	r22, 0x17	; 23
    2090:	8d e1       	ldi	r24, 0x1D	; 29
    2092:	0e 94 85 0f 	call	0x1f0a	; 0x1f0a <reg_write2F>
	reg_write2F(0x1F, 0x50);          //FS_PFD: 0x50          Frequency Synthesizer Phase Frequency Detector Con..
    2096:	60 e5       	ldi	r22, 0x50	; 80
    2098:	8f e1       	ldi	r24, 0x1F	; 31
    209a:	0e 94 85 0f 	call	0x1f0a	; 0x1f0a <reg_write2F>
//  reg_write2F(0x20, 0x6E);          //FS_PRE: 0x6E          Frequency Synthesizer Prescaler Configuration
  
	reg_write2F(0x21, 0x14);          //FS_REG_DIV_CML: 0x14  Frequency Synthesizer Divider Regulator Configurat..
    209e:	64 e1       	ldi	r22, 0x14	; 20
    20a0:	81 e2       	ldi	r24, 0x21	; 33
    20a2:	0e 94 85 0f 	call	0x1f0a	; 0x1f0a <reg_write2F>
	reg_write2F(0x22, 0xAC);          //FS_SPARE: 0xAC        Set up Frequency Synthesizer Spare
    20a6:	6c ea       	ldi	r22, 0xAC	; 172
    20a8:	82 e2       	ldi	r24, 0x22	; 34
    20aa:	0e 94 85 0f 	call	0x1f0a	; 0x1f0a <reg_write2F>
	//reg_write2F(0x27, 0xB4);          //FS_VCO0: 0xB4         FS Voltage Controlled Oscillator Configuration Reg..
	//reg_write2F(0x32, 0x0E);          //XOSC5: 0x0E           Crystal Oscillator Configuration Reg. 5
	//reg_write2F(0x36, 0x03);          //XOSC1: 0x03           Crystal Oscillator Configuration Reg. 0
  
	cmd_str(SNOP);
    20ae:	8d e3       	ldi	r24, 0x3D	; 61
    20b0:	0e 94 7a 0f 	call	0x1ef4	; 0x1ef4 <cmd_str>
	//For test purposes only, (2nd block, deleted first one) use values from SmartRF for some bits
	reg_write(0x08, 0x0B);            //*Changed on line 152
    20b4:	6b e0       	ldi	r22, 0x0B	; 11
    20b6:	88 e0       	ldi	r24, 0x08	; 8
    20b8:	0e 94 42 0f 	call	0x1e84	; 0x1e84 <reg_write>
	reg_write(0x13, 0x0D);            //
    20bc:	6d e0       	ldi	r22, 0x0D	; 13
    20be:	83 e1       	ldi	r24, 0x13	; 19
    20c0:	0e 94 42 0f 	call	0x1e84	; 0x1e84 <reg_write>
	reg_write(0x26, 0x04);            //*Changed on line 144
    20c4:	64 e0       	ldi	r22, 0x04	; 4
    20c6:	86 e2       	ldi	r24, 0x26	; 38
    20c8:	0e 94 42 0f 	call	0x1e84	; 0x1e84 <reg_write>
  
	//High performance RX
	reg_write(0x08, 0x0B);            //
    20cc:	6b e0       	ldi	r22, 0x0B	; 11
    20ce:	88 e0       	ldi	r24, 0x08	; 8
    20d0:	0e 94 42 0f 	call	0x1e84	; 0x1e84 <reg_write>
	reg_write(0x0C, 0x1C);            //
    20d4:	6c e1       	ldi	r22, 0x1C	; 28
    20d6:	8c e0       	ldi	r24, 0x0C	; 12
    20d8:	0e 94 42 0f 	call	0x1e84	; 0x1e84 <reg_write>
	reg_write(0x10, 0x00);            //
    20dc:	60 e0       	ldi	r22, 0x00	; 0
    20de:	80 e1       	ldi	r24, 0x10	; 16
    20e0:	0e 94 42 0f 	call	0x1e84	; 0x1e84 <reg_write>
	reg_write(0x11, 0x04);            //
    20e4:	64 e0       	ldi	r22, 0x04	; 4
    20e6:	81 e1       	ldi	r24, 0x11	; 17
    20e8:	0e 94 42 0f 	call	0x1e84	; 0x1e84 <reg_write>
	reg_write(0x13, 0x05);            //
    20ec:	65 e0       	ldi	r22, 0x05	; 5
    20ee:	83 e1       	ldi	r24, 0x13	; 19
    20f0:	0e 94 42 0f 	call	0x1e84	; 0x1e84 <reg_write>
	reg_write(0x1C, 0xA9);            //
    20f4:	69 ea       	ldi	r22, 0xA9	; 169
    20f6:	8c e1       	ldi	r24, 0x1C	; 28
    20f8:	0e 94 42 0f 	call	0x1e84	; 0x1e84 <reg_write>
	reg_write(0x1D, 0xCF);            //
    20fc:	6f ec       	ldi	r22, 0xCF	; 207
    20fe:	8d e1       	ldi	r24, 0x1D	; 29
    2100:	0e 94 42 0f 	call	0x1e84	; 0x1e84 <reg_write>
	reg_write(0x1E, 0x00);            //
    2104:	60 e0       	ldi	r22, 0x00	; 0
    2106:	8e e1       	ldi	r24, 0x1E	; 30
    2108:	0e 94 42 0f 	call	0x1e84	; 0x1e84 <reg_write>
	reg_write(0x20, 0x03);            //
    210c:	63 e0       	ldi	r22, 0x03	; 3
    210e:	80 e2       	ldi	r24, 0x20	; 32
    2110:	0e 94 42 0f 	call	0x1e84	; 0x1e84 <reg_write>
	reg_write(0x2E, 0x00);            //
    2114:	60 e0       	ldi	r22, 0x00	; 0
    2116:	8e e2       	ldi	r24, 0x2E	; 46
    2118:	0e 94 42 0f 	call	0x1e84	; 0x1e84 <reg_write>
	reg_write2F(0x00, 0x00);          //
    211c:	60 e0       	ldi	r22, 0x00	; 0
    211e:	80 e0       	ldi	r24, 0x00	; 0
    2120:	0e 94 85 0f 	call	0x1f0a	; 0x1f0a <reg_write2F>

	//modulation and freq deviation settings
	reg_write(0x0A, 0b01001000);       //DEVIATION_M: 0x48      set DEV_M to 72 which sets freq deviation to 20.019531kHz (with DEV_M=5)
    2124:	68 e4       	ldi	r22, 0x48	; 72
    2126:	8a e0       	ldi	r24, 0x0A	; 10
    2128:	0e 94 42 0f 	call	0x1e84	; 0x1e84 <reg_write>
	reg_write(0x0B, 0b00000101);       //MODCFG_DEV_E: 0x05     set up modulation mode and DEV_E to 5 (see DEV_M register)
    212c:	65 e0       	ldi	r22, 0x05	; 5
    212e:	8b e0       	ldi	r24, 0x0B	; 11
    2130:	0e 94 42 0f 	call	0x1e84	; 0x1e84 <reg_write>
	reg_write(0x21, 0x1B);       //FS_CFG: 0x14           set up LO divider to 8 (410.0 - 480.0 MHz band), out of lock detector enabled
    2134:	6b e1       	ldi	r22, 0x1B	; 27
    2136:	81 e2       	ldi	r24, 0x21	; 33
    2138:	0e 94 42 0f 	call	0x1e84	; 0x1e84 <reg_write>
  
	//set preamble
	reg_write(0x0D, 0x00);            //PREAMBLE_CFG1: 0x00    No preamble
    213c:	60 e0       	ldi	r22, 0x00	; 0
    213e:	8d e0       	ldi	r24, 0x0D	; 13
    2140:	0e 94 42 0f 	call	0x1e84	; 0x1e84 <reg_write>
	reg_write_bit(0x0E, 5, 0);        //PQT_EN: 0x00           Preamble detection disabled
    2144:	40 e0       	ldi	r20, 0x00	; 0
    2146:	65 e0       	ldi	r22, 0x05	; 5
    2148:	8e e0       	ldi	r24, 0x0E	; 14
    214a:	0e 94 cb 0f 	call	0x1f96	; 0x1f96 <reg_write_bit>
  
	//TOC_LIMIT
	reg_write_bit2F(0x02, 7, 0);      //TOC_LIMIT: 0x00        Using the low tolerance setting (TOC_LIMIT = 0) greatly reduces system settling times and system power consumption as no preamble bits are needed for bit synchronization or frequency offset compensation (4 bits preamble needed for AGC settling).
    214e:	40 e0       	ldi	r20, 0x00	; 0
    2150:	67 e0       	ldi	r22, 0x07	; 7
    2152:	82 e0       	ldi	r24, 0x02	; 2
    2154:	0e 94 f2 0f 	call	0x1fe4	; 0x1fe4 <reg_write_bit2F>
	reg_write_bit2F(0x02, 6, 0);      //TOC_LIMIT: 0x00        Using the low tolerance setting (TOC_LIMIT = 0) greatly reduces system settling times and system power consumption as no preamble bits are needed for bit synchronization or frequency offset compensation (4 bits preamble needed for AGC settling).
    2158:	40 e0       	ldi	r20, 0x00	; 0
    215a:	66 e0       	ldi	r22, 0x06	; 6
    215c:	82 e0       	ldi	r24, 0x02	; 2
    215e:	0e 94 f2 0f 	call	0x1fe4	; 0x1fe4 <reg_write_bit2F>
  
	//set SYNC word
	reg_write_bit(0x08, 6, 0);        //PQT_GATING_EN: 0       PQT gating disabled (preamble not required)
    2162:	40 e0       	ldi	r20, 0x00	; 0
    2164:	66 e0       	ldi	r22, 0x06	; 6
    2166:	88 e0       	ldi	r24, 0x08	; 8
    2168:	0e 94 cb 0f 	call	0x1f96	; 0x1f96 <reg_write_bit>
	reg_write(0x09, 0x17);            //SYNC_CFG0: 0x17        32 bit SYNC word. Bit error qualifier disabled. No check on bit errors
    216c:	67 e1       	ldi	r22, 0x17	; 23
    216e:	89 e0       	ldi	r24, 0x09	; 9
    2170:	0e 94 42 0f 	call	0x1e84	; 0x1e84 <reg_write>
  
	//set packets
	reg_write(0x26, 0x00);            //PKT_CFG2: 0x00         set FIFO mode
    2174:	60 e0       	ldi	r22, 0x00	; 0
    2176:	86 e2       	ldi	r24, 0x26	; 38
    2178:	0e 94 42 0f 	call	0x1e84	; 0x1e84 <reg_write>
	reg_write(0x2E, 0xFF);            //PKT_LEN: 0xFF          set packet length to 0xFF (max)  
    217c:	6f ef       	ldi	r22, 0xFF	; 255
    217e:	8e e2       	ldi	r24, 0x2E	; 46
    2180:	0e 94 42 0f 	call	0x1e84	; 0x1e84 <reg_write>
    
	
	reg_write(0x28, 0b01000000);
    2184:	60 e4       	ldi	r22, 0x40	; 64
    2186:	88 e2       	ldi	r24, 0x28	; 40
    2188:	0e 94 42 0f 	call	0x1e84	; 0x1e84 <reg_write>
	
	
	//Frequency setting
	cmd_str(SNOP);
    218c:	8d e3       	ldi	r24, 0x3D	; 61
    218e:	0e 94 7a 0f 	call	0x1ef4	; 0x1ef4 <cmd_str>
	reg_write2F(0x0C, 0x65);          //FREQ2: 0x6C            set frequency to 434MHz (sets Vco, see equation from FREQ2 section of user guide)
    2192:	65 e6       	ldi	r22, 0x65	; 101
    2194:	8c e0       	ldi	r24, 0x0C	; 12
    2196:	0e 94 85 0f 	call	0x1f0a	; 0x1f0a <reg_write2F>
	reg_write2F(0x0D, 0x40);          //FREQ1: 0x80
    219a:	60 e4       	ldi	r22, 0x40	; 64
    219c:	8d e0       	ldi	r24, 0x0D	; 13
    219e:	0e 94 85 0f 	call	0x1f0a	; 0x1f0a <reg_write2F>

	//set up GPIO1 to 17
	//reg_write(0x00, 17);
	
	//strobe commands to start RX
	cmd_str(SCAL);                   // Calibrate frequency synthesizer
    21a2:	83 e3       	ldi	r24, 0x33	; 51
    21a4:	0e 94 7a 0f 	call	0x1ef4	; 0x1ef4 <cmd_str>
	delay_ms(250);
    21a8:	8a ef       	ldi	r24, 0xFA	; 250
    21aa:	90 e0       	ldi	r25, 0x00	; 0
    21ac:	0e 94 0c 0f 	call	0x1e18	; 0x1e18 <delay_ms>

	cmd_str(SAFC);					 // Automatic frequency control
    21b0:	87 e3       	ldi	r24, 0x37	; 55
    21b2:	0e 94 7a 0f 	call	0x1ef4	; 0x1ef4 <cmd_str>
	delay_ms(250);
    21b6:	8a ef       	ldi	r24, 0xFA	; 250
    21b8:	90 e0       	ldi	r25, 0x00	; 0
    21ba:	0e 94 0c 0f 	call	0x1e18	; 0x1e18 <delay_ms>
	
	//reg_write2F(0xD2, 0x00);
	//reg_write2F(0xD4, 0xFF);
	
	msg_received = 0;
    21be:	10 92 ad 03 	sts	0x03AD, r1

	cmd_str(SRX);                    // Put in RX mode
    21c2:	84 e3       	ldi	r24, 0x34	; 52
    21c4:	0e 94 7a 0f 	call	0x1ef4	; 0x1ef4 <cmd_str>
    21c8:	08 95       	ret

000021ca <test>:
		cmd_str(SRX);
	}
	return;
}

void test(){
    21ca:	1f 93       	push	r17
    21cc:	cf 93       	push	r28
    21ce:	df 93       	push	r29
    21d0:	c5 eb       	ldi	r28, 0xB5	; 181
    21d2:	d3 e0       	ldi	r29, 0x03	; 3
    21d4:	10 e0       	ldi	r17, 0x00	; 0
	if(dir_FIFO_read(0)!=0x05)
		PIN_toggle(LED3);*/
	
    
    for(int i=0x00; i<128; i++){
	    dir_FIFO_write(i, message[i]);
    21d6:	69 91       	ld	r22, Y+
    21d8:	81 2f       	mov	r24, r17
    21da:	0e 94 a8 0f 	call	0x1f50	; 0x1f50 <dir_FIFO_write>
    21de:	1f 5f       	subi	r17, 0xFF	; 255
	/*dir_FIFO_write(0,0x05);
	if(dir_FIFO_read(0)!=0x05)
		PIN_toggle(LED3);*/
	
    
    for(int i=0x00; i<128; i++){
    21e0:	10 38       	cpi	r17, 0x80	; 128
    21e2:	c9 f7       	brne	.-14     	; 0x21d6 <test+0xc>
	    dir_FIFO_write(i, message[i]);
    }
    
    reg_write2F(0xD3, 0x00);
    21e4:	60 e0       	ldi	r22, 0x00	; 0
    21e6:	83 ed       	ldi	r24, 0xD3	; 211
    21e8:	0e 94 85 0f 	call	0x1f0a	; 0x1f0a <reg_write2F>
    reg_write2F(0xD5, 0x7F);
    21ec:	6f e7       	ldi	r22, 0x7F	; 127
    21ee:	85 ed       	ldi	r24, 0xD5	; 213
    21f0:	0e 94 85 0f 	call	0x1f0a	; 0x1f0a <reg_write2F>
    
    cmd_str(STX);
    21f4:	85 e3       	ldi	r24, 0x35	; 53
    21f6:	0e 94 7a 0f 	call	0x1ef4	; 0x1ef4 <cmd_str>
                 //put in TX mode
}
    21fa:	df 91       	pop	r29
    21fc:	cf 91       	pop	r28
    21fe:	1f 91       	pop	r17
    2200:	08 95       	ret

00002202 <__tablejump2__>:
    2202:	ee 0f       	add	r30, r30
    2204:	ff 1f       	adc	r31, r31

00002206 <__tablejump__>:
    2206:	05 90       	lpm	r0, Z+
    2208:	f4 91       	lpm	r31, Z
    220a:	e0 2d       	mov	r30, r0
    220c:	09 94       	ijmp

0000220e <_exit>:
    220e:	f8 94       	cli

00002210 <__stop_program>:
    2210:	ff cf       	rjmp	.-2      	; 0x2210 <__stop_program>
